Component: ARM Compiler 5.06 update 5 (build 528) Tool: armlink [4d35e2]

==============================================================================

Section Cross References

    main.o(i.blinkCallBack) refers to lpc17xx_gpio.o(i.GPIO_ReadValue) for GPIO_ReadValue
    main.o(i.blinkCallBack) refers to lpc17xx_gpio.o(i.GPIO_ClearValue) for GPIO_ClearValue
    main.o(i.blinkCallBack) refers to lpc17xx_gpio.o(i.GPIO_SetValue) for GPIO_SetValue
    main.o(i.leBotoesMensagens) refers to queue.o(i.xQueueGenericCreate) for xQueueGenericCreate
    main.o(i.leBotoesMensagens) refers to lpc17xx_gpio.o(i.GPIO_ReadValue) for GPIO_ReadValue
    main.o(i.leBotoesMensagens) refers to tasks.o(i.xTaskGetTickCount) for xTaskGetTickCount
    main.o(i.leBotoesMensagens) refers to tasks.o(i.xTaskGenericNotify) for xTaskGenericNotify
    main.o(i.leBotoesMensagens) refers to queue.o(i.xQueueGenericSend) for xQueueGenericSend
    main.o(i.leBotoesMensagens) refers to main.o(.data) for xSemaphoreBotao2
    main.o(i.leCanalAD) refers to queue.o(i.xQueueSemaphoreTake) for xQueueSemaphoreTake
    main.o(i.leCanalAD) refers to lpc17xx_adc.o(i.ADC_ChannelCmd) for ADC_ChannelCmd
    main.o(i.leCanalAD) refers to lpc17xx_adc.o(i.ADC_StartCmd) for ADC_StartCmd
    main.o(i.leCanalAD) refers to lpc17xx_adc.o(i.ADC_ChannelGetStatus) for ADC_ChannelGetStatus
    main.o(i.leCanalAD) refers to lpc17xx_adc.o(i.ADC_ChannelGetData) for ADC_ChannelGetData
    main.o(i.leCanalAD) refers to queue.o(i.xQueueGenericSend) for xQueueGenericSend
    main.o(i.leCanalAD) refers to main.o(.data) for mutexADC
    main.o(i.lerBotaoLed) refers to lpc17xx_gpio.o(i.GPIO_ReadValue) for GPIO_ReadValue
    main.o(i.lerBotaoLed) refers to tasks.o(i.vTaskSuspend) for vTaskSuspend
    main.o(i.lerBotaoLed) refers to main.o(.data) for xTaskHandleBotao
    main.o(i.main) refers to system_lpc17xx.o(i.SystemInit) for SystemInit
    main.o(i.main) refers to system_lpc17xx.o(i.SystemCoreClockUpdate) for SystemCoreClockUpdate
    main.o(i.main) refers to lpc17xx_gpio.o(i.GPIO_SetDir) for GPIO_SetDir
    main.o(i.main) refers to lpc17xx_uart.o(i.UART_FIFOConfigStructInit) for UART_FIFOConfigStructInit
    main.o(i.main) refers to lpc17xx_uart.o(i.UART_ConfigStructInit) for UART_ConfigStructInit
    main.o(i.main) refers to lpc17xx_uart.o(i.UART_Init) for UART_Init
    main.o(i.main) refers to lpc17xx_uart.o(i.UART_TxCmd) for UART_TxCmd
    main.o(i.main) refers to lpc17xx_pinsel.o(i.PINSEL_ConfigPin) for PINSEL_ConfigPin
    main.o(i.main) refers to lpc17xx_adc.o(i.ADC_Init) for ADC_Init
    main.o(i.main) refers to queue.o(i.xQueueCreateMutex) for xQueueCreateMutex
    main.o(i.main) refers to timers.o(i.xTimerCreate) for xTimerCreate
    main.o(i.main) refers to tasks.o(i.xTaskGetTickCount) for xTaskGetTickCount
    main.o(i.main) refers to timers.o(i.xTimerGenericCommand) for xTimerGenericCommand
    main.o(i.main) refers to tasks.o(i.xTaskCreate) for xTaskCreate
    main.o(i.main) refers to freertos_ip.o(i.FreeRTOS_IPInit) for FreeRTOS_IPInit
    main.o(i.main) refers to tasks.o(i.vTaskStartScheduler) for vTaskStartScheduler
    main.o(i.main) refers to main.o(.data) for mutexADC
    main.o(i.main) refers to main.o(i.blinkCallBack) for blinkCallBack
    main.o(i.main) refers to main.o(i.vTaskRetornoLed2) for vTaskRetornoLed2
    main.o(i.main) refers to main.o(i.lerBotaoLed) for lerBotaoLed
    main.o(i.main) refers to main.o(i.leBotoesMensagens) for leBotoesMensagens
    main.o(i.main) refers to main.o(i.recebeEnviaSerial) for recebeEnviaSerial
    main.o(i.main) refers to main.o(i.potenciometro) for potenciometro
    main.o(i.main) refers to main.o(i.vUDPServer) for vUDPServer
    main.o(i.mensagemUART) refers to queue.o(i.xQueueSemaphoreTake) for xQueueSemaphoreTake
    main.o(i.mensagemUART) refers to strlen.o(.text) for strlen
    main.o(i.mensagemUART) refers to lpc17xx_uart.o(i.UART_Send) for UART_Send
    main.o(i.mensagemUART) refers to queue.o(i.xQueueGenericSend) for xQueueGenericSend
    main.o(i.mensagemUART) refers to main.o(.data) for Potenciometro
    main.o(i.potenciometro) refers to _printf_percent.o(.ARM.Collect$$_printf_percent$$00000000) for _printf_percent
    main.o(i.potenciometro) refers to _printf_u.o(.ARM.Collect$$_printf_percent$$0000000A) for _printf_u
    main.o(i.potenciometro) refers to _printf_dec.o(.text) for _printf_int_dec
    main.o(i.potenciometro) refers to main.o(i.leCanalAD) for leCanalAD
    main.o(i.potenciometro) refers to noretval__2sprintf.o(.text) for __2sprintf
    main.o(i.potenciometro) refers to main.o(i.mensagemUART) for mensagemUART
    main.o(i.potenciometro) refers to tasks.o(i.vTaskDelay) for vTaskDelay
    main.o(i.recebeEnviaSerial) refers to tasks.o(i.ulTaskNotifyTake) for ulTaskNotifyTake
    main.o(i.recebeEnviaSerial) refers to main.o(i.mensagemUART) for mensagemUART
    main.o(i.recebeEnviaSerial) refers to tasks.o(i.vTaskDelay) for vTaskDelay
    main.o(i.recebeEnviaSerial) refers to queue.o(i.xQueueSemaphoreTake) for xQueueSemaphoreTake
    main.o(i.recebeEnviaSerial) refers to main.o(.data) for xSemaphoreBotao2
    main.o(i.vApplicationStackOverflowHook) refers to strlen.o(.text) for strlen
    main.o(i.vApplicationStackOverflowHook) refers to lpc17xx_uart.o(i.UART_Send) for UART_Send
    main.o(i.vApplicationStackOverflowHook) refers to lpc17xx_gpio.o(i.GPIO_ReadValue) for GPIO_ReadValue
    main.o(i.vApplicationStackOverflowHook) refers to lpc17xx_gpio.o(i.GPIO_ClearValue) for GPIO_ClearValue
    main.o(i.vApplicationStackOverflowHook) refers to lpc17xx_gpio.o(i.GPIO_SetValue) for GPIO_SetValue
    main.o(i.vAssertCalled) refers to _printf_percent.o(.ARM.Collect$$_printf_percent$$00000000) for _printf_percent
    main.o(i.vAssertCalled) refers to _printf_u.o(.ARM.Collect$$_printf_percent$$0000000A) for _printf_u
    main.o(i.vAssertCalled) refers to _printf_s.o(.ARM.Collect$$_printf_percent$$00000014) for _printf_s
    main.o(i.vAssertCalled) refers to _printf_dec.o(.text) for _printf_int_dec
    main.o(i.vAssertCalled) refers to _printf_str.o(.text) for _printf_str
    main.o(i.vAssertCalled) refers to noretval__2sprintf.o(.text) for __2sprintf
    main.o(i.vAssertCalled) refers to strlen.o(.text) for strlen
    main.o(i.vAssertCalled) refers to lpc17xx_uart.o(i.UART_Send) for UART_Send
    main.o(i.vTaskRetornoLed2) refers to lpc17xx_gpio.o(i.GPIO_ReadValue) for GPIO_ReadValue
    main.o(i.vTaskRetornoLed2) refers to lpc17xx_gpio.o(i.GPIO_ClearValue) for GPIO_ClearValue
    main.o(i.vTaskRetornoLed2) refers to lpc17xx_gpio.o(i.GPIO_SetValue) for GPIO_SetValue
    main.o(i.vTaskRetornoLed2) refers to tasks.o(i.vTaskDelay) for vTaskDelay
    main.o(i.vUDPServer) refers to freertos_sockets.o(i.FreeRTOS_socket) for FreeRTOS_socket
    main.o(i.vUDPServer) refers to freertos_sockets.o(i.FreeRTOS_setsockopt) for FreeRTOS_setsockopt
    main.o(i.vUDPServer) refers to freertos_sockets.o(i.FreeRTOS_bind) for FreeRTOS_bind
    main.o(i.vUDPServer) refers to rt_memclr.o(.text) for __aeabi_memclr
    main.o(i.vUDPServer) refers to freertos_sockets.o(i.FreeRTOS_recvfrom) for FreeRTOS_recvfrom
    main.o(i.vUDPServer) refers to strlen.o(.text) for strlen
    main.o(i.vUDPServer) refers to freertos_sockets.o(i.FreeRTOS_sendto) for FreeRTOS_sendto
    main.o(i.vUDPServer) refers to main.o(.constdata) for xReceiveTimeOut
    main.o(i.vUDPServer) refers to main.o(.bss) for aesBuf
    system_lpc17xx.o(i.SystemCoreClockUpdate) refers to system_lpc17xx.o(.data) for SystemCoreClock
    startup_mps_cm3.o(STACK) refers (Special) to heapauxi.o(.text) for __use_two_region_memory
    startup_mps_cm3.o(HEAP) refers (Special) to heapauxi.o(.text) for __use_two_region_memory
    startup_mps_cm3.o(RESET) refers (Special) to heapauxi.o(.text) for __use_two_region_memory
    startup_mps_cm3.o(RESET) refers to startup_mps_cm3.o(STACK) for __initial_sp
    startup_mps_cm3.o(RESET) refers to startup_mps_cm3.o(.text) for Reset_Handler
    startup_mps_cm3.o(RESET) refers to port.o(.emb_text) for vPortSVCHandler
    startup_mps_cm3.o(RESET) refers to port.o(i.xPortSysTickHandler) for xPortSysTickHandler
    startup_mps_cm3.o(RESET) refers to networkhal.o(i.ENET_IRQHandler) for ENET_IRQHandler
    startup_mps_cm3.o(.text) refers (Special) to heapauxi.o(.text) for __use_two_region_memory
    startup_mps_cm3.o(.text) refers to __main.o(!!!main) for __main
    startup_mps_cm3.o(.text) refers to startup_mps_cm3.o(HEAP) for Heap_Mem
    startup_mps_cm3.o(.text) refers to startup_mps_cm3.o(STACK) for Stack_Mem
    port.o(.emb_text) refers to tasks.o(i.vTaskSwitchContext) for vTaskSwitchContext
    port.o(.emb_text) refers to tasks.o(.data) for pxCurrentTCB
    port.o(i.pxPortInitialiseStack) refers to port.o(i.prvTaskExitError) for prvTaskExitError
    port.o(i.vPortEnterCritical) refers to port.o(.data) for .data
    port.o(i.vPortExitCritical) refers to port.o(.data) for .data
    port.o(i.vPortSetupTimerInterrupt) refers to system_lpc17xx.o(.data) for SystemCoreClock
    port.o(i.xPortStartScheduler) refers to port.o(i.vPortSetupTimerInterrupt) for vPortSetupTimerInterrupt
    port.o(i.xPortStartScheduler) refers to port.o(.emb_text) for __asm___6_port_c_39a90d8d__prvStartFirstTask
    port.o(i.xPortStartScheduler) refers to port.o(.data) for .data
    port.o(i.xPortSysTickHandler) refers to tasks.o(i.xTaskIncrementTick) for xTaskIncrementTick
    queue.o(i.prvUnlockQueue) refers to port.o(i.vPortEnterCritical) for vPortEnterCritical
    queue.o(i.prvUnlockQueue) refers to tasks.o(i.xTaskRemoveFromEventList) for xTaskRemoveFromEventList
    queue.o(i.prvUnlockQueue) refers to tasks.o(i.vTaskMissedYield) for vTaskMissedYield
    queue.o(i.prvUnlockQueue) refers to port.o(i.vPortExitCritical) for vPortExitCritical
    queue.o(i.uxQueueMessagesWaiting) refers to port.o(i.vPortEnterCritical) for vPortEnterCritical
    queue.o(i.uxQueueMessagesWaiting) refers to port.o(i.vPortExitCritical) for vPortExitCritical
    queue.o(i.uxQueueSpacesAvailable) refers to port.o(i.vPortEnterCritical) for vPortEnterCritical
    queue.o(i.uxQueueSpacesAvailable) refers to port.o(i.vPortExitCritical) for vPortExitCritical
    queue.o(i.vQueueDelete) refers to heap_4.o(i.vPortFree) for vPortFree
    queue.o(i.vQueueWaitForMessageRestricted) refers to port.o(i.vPortEnterCritical) for vPortEnterCritical
    queue.o(i.vQueueWaitForMessageRestricted) refers to port.o(i.vPortExitCritical) for vPortExitCritical
    queue.o(i.vQueueWaitForMessageRestricted) refers to tasks.o(i.vTaskPlaceOnEventListRestricted) for vTaskPlaceOnEventListRestricted
    queue.o(i.vQueueWaitForMessageRestricted) refers to queue.o(i.prvUnlockQueue) for prvUnlockQueue
    queue.o(i.xQueueCreateCountingSemaphore) refers to queue.o(i.xQueueGenericCreate) for xQueueGenericCreate
    queue.o(i.xQueueCreateCountingSemaphoreStatic) refers to queue.o(i.xQueueGenericCreateStatic) for xQueueGenericCreateStatic
    queue.o(i.xQueueCreateMutex) refers to queue.o(i.xQueueGenericCreate) for xQueueGenericCreate
    queue.o(i.xQueueCreateMutex) refers to queue.o(i.xQueueGenericSend) for xQueueGenericSend
    queue.o(i.xQueueCreateMutexStatic) refers to queue.o(i.xQueueGenericCreateStatic) for xQueueGenericCreateStatic
    queue.o(i.xQueueCreateMutexStatic) refers to queue.o(i.xQueueGenericSend) for xQueueGenericSend
    queue.o(i.xQueueGenericCreate) refers to heap_4.o(i.pvPortMalloc) for pvPortMalloc
    queue.o(i.xQueueGenericCreate) refers to port.o(i.vPortEnterCritical) for vPortEnterCritical
    queue.o(i.xQueueGenericCreate) refers to list.o(i.vListInitialise) for vListInitialise
    queue.o(i.xQueueGenericCreate) refers to port.o(i.vPortExitCritical) for vPortExitCritical
    queue.o(i.xQueueGenericCreateStatic) refers to port.o(i.vPortEnterCritical) for vPortEnterCritical
    queue.o(i.xQueueGenericCreateStatic) refers to list.o(i.vListInitialise) for vListInitialise
    queue.o(i.xQueueGenericCreateStatic) refers to port.o(i.vPortExitCritical) for vPortExitCritical
    queue.o(i.xQueueGenericReset) refers to port.o(i.vPortEnterCritical) for vPortEnterCritical
    queue.o(i.xQueueGenericReset) refers to list.o(i.vListInitialise) for vListInitialise
    queue.o(i.xQueueGenericReset) refers to port.o(i.vPortExitCritical) for vPortExitCritical
    queue.o(i.xQueueGenericReset) refers to tasks.o(i.xTaskRemoveFromEventList) for xTaskRemoveFromEventList
    queue.o(i.xQueueGenericSend) refers to port.o(i.vPortEnterCritical) for vPortEnterCritical
    queue.o(i.xQueueGenericSend) refers to rt_memcpy_v6.o(.text) for __aeabi_memcpy
    queue.o(i.xQueueGenericSend) refers to tasks.o(i.xTaskPriorityDisinherit) for xTaskPriorityDisinherit
    queue.o(i.xQueueGenericSend) refers to tasks.o(i.xTaskRemoveFromEventList) for xTaskRemoveFromEventList
    queue.o(i.xQueueGenericSend) refers to port.o(i.vPortExitCritical) for vPortExitCritical
    queue.o(i.xQueueGenericSend) refers to tasks.o(i.vTaskInternalSetTimeOutState) for vTaskInternalSetTimeOutState
    queue.o(i.xQueueGenericSend) refers to tasks.o(i.vTaskSuspendAll) for vTaskSuspendAll
    queue.o(i.xQueueGenericSend) refers to tasks.o(i.xTaskCheckForTimeOut) for xTaskCheckForTimeOut
    queue.o(i.xQueueGenericSend) refers to queue.o(i.prvUnlockQueue) for prvUnlockQueue
    queue.o(i.xQueueGenericSend) refers to tasks.o(i.xTaskResumeAll) for xTaskResumeAll
    queue.o(i.xQueueGenericSend) refers to tasks.o(i.vTaskPlaceOnEventList) for vTaskPlaceOnEventList
    queue.o(i.xQueueGenericSendFromISR) refers to rt_memcpy_v6.o(.text) for __aeabi_memcpy
    queue.o(i.xQueueGenericSendFromISR) refers to tasks.o(i.xTaskPriorityDisinherit) for xTaskPriorityDisinherit
    queue.o(i.xQueueGenericSendFromISR) refers to tasks.o(i.xTaskRemoveFromEventList) for xTaskRemoveFromEventList
    queue.o(i.xQueueGiveFromISR) refers to tasks.o(i.xTaskRemoveFromEventList) for xTaskRemoveFromEventList
    queue.o(i.xQueueGiveMutexRecursive) refers to tasks.o(i.xTaskGetCurrentTaskHandle) for xTaskGetCurrentTaskHandle
    queue.o(i.xQueueGiveMutexRecursive) refers to queue.o(i.xQueueGenericSend) for xQueueGenericSend
    queue.o(i.xQueuePeek) refers to port.o(i.vPortEnterCritical) for vPortEnterCritical
    queue.o(i.xQueuePeek) refers to rt_memcpy_v6.o(.text) for __aeabi_memcpy
    queue.o(i.xQueuePeek) refers to tasks.o(i.xTaskRemoveFromEventList) for xTaskRemoveFromEventList
    queue.o(i.xQueuePeek) refers to port.o(i.vPortExitCritical) for vPortExitCritical
    queue.o(i.xQueuePeek) refers to tasks.o(i.vTaskInternalSetTimeOutState) for vTaskInternalSetTimeOutState
    queue.o(i.xQueuePeek) refers to tasks.o(i.vTaskSuspendAll) for vTaskSuspendAll
    queue.o(i.xQueuePeek) refers to tasks.o(i.xTaskCheckForTimeOut) for xTaskCheckForTimeOut
    queue.o(i.xQueuePeek) refers to queue.o(i.prvUnlockQueue) for prvUnlockQueue
    queue.o(i.xQueuePeek) refers to tasks.o(i.xTaskResumeAll) for xTaskResumeAll
    queue.o(i.xQueuePeek) refers to tasks.o(i.vTaskPlaceOnEventList) for vTaskPlaceOnEventList
    queue.o(i.xQueuePeekFromISR) refers to rt_memcpy_v6.o(.text) for __aeabi_memcpy
    queue.o(i.xQueueReceive) refers to port.o(i.vPortEnterCritical) for vPortEnterCritical
    queue.o(i.xQueueReceive) refers to rt_memcpy_v6.o(.text) for __aeabi_memcpy
    queue.o(i.xQueueReceive) refers to tasks.o(i.xTaskRemoveFromEventList) for xTaskRemoveFromEventList
    queue.o(i.xQueueReceive) refers to port.o(i.vPortExitCritical) for vPortExitCritical
    queue.o(i.xQueueReceive) refers to tasks.o(i.vTaskInternalSetTimeOutState) for vTaskInternalSetTimeOutState
    queue.o(i.xQueueReceive) refers to tasks.o(i.vTaskSuspendAll) for vTaskSuspendAll
    queue.o(i.xQueueReceive) refers to tasks.o(i.xTaskCheckForTimeOut) for xTaskCheckForTimeOut
    queue.o(i.xQueueReceive) refers to queue.o(i.prvUnlockQueue) for prvUnlockQueue
    queue.o(i.xQueueReceive) refers to tasks.o(i.xTaskResumeAll) for xTaskResumeAll
    queue.o(i.xQueueReceive) refers to tasks.o(i.vTaskPlaceOnEventList) for vTaskPlaceOnEventList
    queue.o(i.xQueueReceiveFromISR) refers to rt_memcpy_v6.o(.text) for __aeabi_memcpy
    queue.o(i.xQueueReceiveFromISR) refers to tasks.o(i.xTaskRemoveFromEventList) for xTaskRemoveFromEventList
    queue.o(i.xQueueSemaphoreTake) refers to port.o(i.vPortEnterCritical) for vPortEnterCritical
    queue.o(i.xQueueSemaphoreTake) refers to tasks.o(i.pvTaskIncrementMutexHeldCount) for pvTaskIncrementMutexHeldCount
    queue.o(i.xQueueSemaphoreTake) refers to tasks.o(i.xTaskRemoveFromEventList) for xTaskRemoveFromEventList
    queue.o(i.xQueueSemaphoreTake) refers to port.o(i.vPortExitCritical) for vPortExitCritical
    queue.o(i.xQueueSemaphoreTake) refers to tasks.o(i.vTaskInternalSetTimeOutState) for vTaskInternalSetTimeOutState
    queue.o(i.xQueueSemaphoreTake) refers to tasks.o(i.vTaskSuspendAll) for vTaskSuspendAll
    queue.o(i.xQueueSemaphoreTake) refers to tasks.o(i.xTaskCheckForTimeOut) for xTaskCheckForTimeOut
    queue.o(i.xQueueSemaphoreTake) refers to queue.o(i.prvUnlockQueue) for prvUnlockQueue
    queue.o(i.xQueueSemaphoreTake) refers to tasks.o(i.xTaskResumeAll) for xTaskResumeAll
    queue.o(i.xQueueSemaphoreTake) refers to tasks.o(i.xTaskPriorityInherit) for xTaskPriorityInherit
    queue.o(i.xQueueSemaphoreTake) refers to tasks.o(i.vTaskPlaceOnEventList) for vTaskPlaceOnEventList
    queue.o(i.xQueueSemaphoreTake) refers to tasks.o(i.vTaskPriorityDisinheritAfterTimeout) for vTaskPriorityDisinheritAfterTimeout
    queue.o(i.xQueueTakeMutexRecursive) refers to tasks.o(i.xTaskGetCurrentTaskHandle) for xTaskGetCurrentTaskHandle
    queue.o(i.xQueueTakeMutexRecursive) refers to queue.o(i.xQueueSemaphoreTake) for xQueueSemaphoreTake
    tasks.o(i.pcTaskGetName) refers to tasks.o(.data) for .data
    tasks.o(i.prvAddCurrentTaskToDelayedList) refers to list.o(i.uxListRemove) for uxListRemove
    tasks.o(i.prvAddCurrentTaskToDelayedList) refers to list.o(i.vListInsertEnd) for vListInsertEnd
    tasks.o(i.prvAddCurrentTaskToDelayedList) refers to list.o(i.vListInsert) for vListInsert
    tasks.o(i.prvAddCurrentTaskToDelayedList) refers to tasks.o(.data) for .data
    tasks.o(i.prvAddCurrentTaskToDelayedList) refers to tasks.o(.bss) for .bss
    tasks.o(i.prvAddNewTaskToReadyList) refers to port.o(i.vPortEnterCritical) for vPortEnterCritical
    tasks.o(i.prvAddNewTaskToReadyList) refers to list.o(i.vListInitialise) for vListInitialise
    tasks.o(i.prvAddNewTaskToReadyList) refers to list.o(i.vListInsertEnd) for vListInsertEnd
    tasks.o(i.prvAddNewTaskToReadyList) refers to port.o(i.vPortExitCritical) for vPortExitCritical
    tasks.o(i.prvAddNewTaskToReadyList) refers to tasks.o(.data) for .data
    tasks.o(i.prvAddNewTaskToReadyList) refers to tasks.o(.bss) for .bss
    tasks.o(i.prvIdleTask) refers to port.o(i.vPortEnterCritical) for vPortEnterCritical
    tasks.o(i.prvIdleTask) refers to list.o(i.uxListRemove) for uxListRemove
    tasks.o(i.prvIdleTask) refers to port.o(i.vPortExitCritical) for vPortExitCritical
    tasks.o(i.prvIdleTask) refers to heap_4.o(i.vPortFree) for vPortFree
    tasks.o(i.prvIdleTask) refers to tasks.o(.bss) for .bss
    tasks.o(i.prvIdleTask) refers to tasks.o(.data) for .data
    tasks.o(i.pvTaskIncrementMutexHeldCount) refers to tasks.o(.data) for .data
    tasks.o(i.ulTaskNotifyTake) refers to port.o(i.vPortEnterCritical) for vPortEnterCritical
    tasks.o(i.ulTaskNotifyTake) refers to tasks.o(i.prvAddCurrentTaskToDelayedList) for prvAddCurrentTaskToDelayedList
    tasks.o(i.ulTaskNotifyTake) refers to port.o(i.vPortExitCritical) for vPortExitCritical
    tasks.o(i.ulTaskNotifyTake) refers to tasks.o(.data) for .data
    tasks.o(i.ulTaskNotifyValueClear) refers to port.o(i.vPortEnterCritical) for vPortEnterCritical
    tasks.o(i.ulTaskNotifyValueClear) refers to port.o(i.vPortExitCritical) for vPortExitCritical
    tasks.o(i.ulTaskNotifyValueClear) refers to tasks.o(.data) for .data
    tasks.o(i.uxTaskGetNumberOfTasks) refers to tasks.o(.data) for .data
    tasks.o(i.uxTaskGetStackHighWaterMark) refers to tasks.o(.data) for .data
    tasks.o(i.uxTaskResetEventItemValue) refers to tasks.o(.data) for .data
    tasks.o(i.vTaskDelay) refers to tasks.o(i.prvAddCurrentTaskToDelayedList) for prvAddCurrentTaskToDelayedList
    tasks.o(i.vTaskDelay) refers to tasks.o(i.xTaskResumeAll) for xTaskResumeAll
    tasks.o(i.vTaskDelay) refers to tasks.o(.data) for .data
    tasks.o(i.vTaskDelayUntil) refers to tasks.o(i.prvAddCurrentTaskToDelayedList) for prvAddCurrentTaskToDelayedList
    tasks.o(i.vTaskDelayUntil) refers to tasks.o(i.xTaskResumeAll) for xTaskResumeAll
    tasks.o(i.vTaskDelayUntil) refers to tasks.o(.data) for .data
    tasks.o(i.vTaskDelete) refers to port.o(i.vPortEnterCritical) for vPortEnterCritical
    tasks.o(i.vTaskDelete) refers to list.o(i.uxListRemove) for uxListRemove
    tasks.o(i.vTaskDelete) refers to list.o(i.vListInsertEnd) for vListInsertEnd
    tasks.o(i.vTaskDelete) refers to port.o(i.vPortExitCritical) for vPortExitCritical
    tasks.o(i.vTaskDelete) refers to heap_4.o(i.vPortFree) for vPortFree
    tasks.o(i.vTaskDelete) refers to tasks.o(.data) for .data
    tasks.o(i.vTaskDelete) refers to tasks.o(.bss) for .bss
    tasks.o(i.vTaskEndScheduler) refers to port.o(i.vPortEndScheduler) for vPortEndScheduler
    tasks.o(i.vTaskEndScheduler) refers to tasks.o(.data) for .data
    tasks.o(i.vTaskInternalSetTimeOutState) refers to tasks.o(.data) for .data
    tasks.o(i.vTaskMissedYield) refers to tasks.o(.data) for .data
    tasks.o(i.vTaskNotifyGiveFromISR) refers to list.o(i.vListInsertEnd) for vListInsertEnd
    tasks.o(i.vTaskNotifyGiveFromISR) refers to list.o(i.uxListRemove) for uxListRemove
    tasks.o(i.vTaskNotifyGiveFromISR) refers to tasks.o(.data) for .data
    tasks.o(i.vTaskNotifyGiveFromISR) refers to tasks.o(.bss) for .bss
    tasks.o(i.vTaskPlaceOnEventList) refers to list.o(i.vListInsert) for vListInsert
    tasks.o(i.vTaskPlaceOnEventList) refers to tasks.o(i.prvAddCurrentTaskToDelayedList) for prvAddCurrentTaskToDelayedList
    tasks.o(i.vTaskPlaceOnEventList) refers to tasks.o(.data) for .data
    tasks.o(i.vTaskPlaceOnEventListRestricted) refers to list.o(i.vListInsertEnd) for vListInsertEnd
    tasks.o(i.vTaskPlaceOnEventListRestricted) refers to tasks.o(i.prvAddCurrentTaskToDelayedList) for prvAddCurrentTaskToDelayedList
    tasks.o(i.vTaskPlaceOnEventListRestricted) refers to tasks.o(.data) for .data
    tasks.o(i.vTaskPlaceOnUnorderedEventList) refers to list.o(i.vListInsertEnd) for vListInsertEnd
    tasks.o(i.vTaskPlaceOnUnorderedEventList) refers to tasks.o(i.prvAddCurrentTaskToDelayedList) for prvAddCurrentTaskToDelayedList
    tasks.o(i.vTaskPlaceOnUnorderedEventList) refers to tasks.o(.data) for .data
    tasks.o(i.vTaskPriorityDisinheritAfterTimeout) refers to list.o(i.uxListRemove) for uxListRemove
    tasks.o(i.vTaskPriorityDisinheritAfterTimeout) refers to list.o(i.vListInsertEnd) for vListInsertEnd
    tasks.o(i.vTaskPriorityDisinheritAfterTimeout) refers to tasks.o(.bss) for .bss
    tasks.o(i.vTaskPriorityDisinheritAfterTimeout) refers to tasks.o(.data) for .data
    tasks.o(i.vTaskRemoveFromUnorderedEventList) refers to list.o(i.uxListRemove) for uxListRemove
    tasks.o(i.vTaskRemoveFromUnorderedEventList) refers to list.o(i.vListInsertEnd) for vListInsertEnd
    tasks.o(i.vTaskRemoveFromUnorderedEventList) refers to tasks.o(.data) for .data
    tasks.o(i.vTaskRemoveFromUnorderedEventList) refers to tasks.o(.bss) for .bss
    tasks.o(i.vTaskResume) refers to port.o(i.vPortEnterCritical) for vPortEnterCritical
    tasks.o(i.vTaskResume) refers to list.o(i.uxListRemove) for uxListRemove
    tasks.o(i.vTaskResume) refers to list.o(i.vListInsertEnd) for vListInsertEnd
    tasks.o(i.vTaskResume) refers to port.o(i.vPortExitCritical) for vPortExitCritical
    tasks.o(i.vTaskResume) refers to tasks.o(.data) for .data
    tasks.o(i.vTaskResume) refers to tasks.o(.bss) for .bss
    tasks.o(i.vTaskSetTimeOutState) refers to port.o(i.vPortEnterCritical) for vPortEnterCritical
    tasks.o(i.vTaskSetTimeOutState) refers to port.o(i.vPortExitCritical) for vPortExitCritical
    tasks.o(i.vTaskSetTimeOutState) refers to tasks.o(.data) for .data
    tasks.o(i.vTaskStartScheduler) refers to freertosappstaticalloc.o(i.vApplicationGetIdleTaskMemory) for vApplicationGetIdleTaskMemory
    tasks.o(i.vTaskStartScheduler) refers to aeabi_memset.o(.text) for __aeabi_memset
    tasks.o(i.vTaskStartScheduler) refers to list.o(i.vListInitialiseItem) for vListInitialiseItem
    tasks.o(i.vTaskStartScheduler) refers to port.o(i.pxPortInitialiseStack) for pxPortInitialiseStack
    tasks.o(i.vTaskStartScheduler) refers to tasks.o(i.prvAddNewTaskToReadyList) for prvAddNewTaskToReadyList
    tasks.o(i.vTaskStartScheduler) refers to timers.o(i.xTimerCreateTimerTask) for xTimerCreateTimerTask
    tasks.o(i.vTaskStartScheduler) refers to port.o(i.xPortStartScheduler) for xPortStartScheduler
    tasks.o(i.vTaskStartScheduler) refers to tasks.o(i.prvIdleTask) for prvIdleTask
    tasks.o(i.vTaskStartScheduler) refers to tasks.o(.data) for .data
    tasks.o(i.vTaskSuspend) refers to port.o(i.vPortEnterCritical) for vPortEnterCritical
    tasks.o(i.vTaskSuspend) refers to list.o(i.uxListRemove) for uxListRemove
    tasks.o(i.vTaskSuspend) refers to list.o(i.vListInsertEnd) for vListInsertEnd
    tasks.o(i.vTaskSuspend) refers to port.o(i.vPortExitCritical) for vPortExitCritical
    tasks.o(i.vTaskSuspend) refers to main.o(i.vApplicationStackOverflowHook) for vApplicationStackOverflowHook
    tasks.o(i.vTaskSuspend) refers to tasks.o(.data) for .data
    tasks.o(i.vTaskSuspend) refers to tasks.o(.bss) for .bss
    tasks.o(i.vTaskSuspendAll) refers to tasks.o(.data) for .data
    tasks.o(i.vTaskSwitchContext) refers to main.o(i.vApplicationStackOverflowHook) for vApplicationStackOverflowHook
    tasks.o(i.vTaskSwitchContext) refers to tasks.o(.data) for .data
    tasks.o(i.vTaskSwitchContext) refers to tasks.o(.bss) for .bss
    tasks.o(i.xTaskCatchUpTicks) refers to tasks.o(i.xTaskResumeAll) for xTaskResumeAll
    tasks.o(i.xTaskCatchUpTicks) refers to tasks.o(.data) for .data
    tasks.o(i.xTaskCheckForTimeOut) refers to port.o(i.vPortEnterCritical) for vPortEnterCritical
    tasks.o(i.xTaskCheckForTimeOut) refers to port.o(i.vPortExitCritical) for vPortExitCritical
    tasks.o(i.xTaskCheckForTimeOut) refers to tasks.o(.data) for .data
    tasks.o(i.xTaskCreate) refers to heap_4.o(i.pvPortMalloc) for pvPortMalloc
    tasks.o(i.xTaskCreate) refers to aeabi_memset.o(.text) for __aeabi_memset
    tasks.o(i.xTaskCreate) refers to list.o(i.vListInitialiseItem) for vListInitialiseItem
    tasks.o(i.xTaskCreate) refers to port.o(i.pxPortInitialiseStack) for pxPortInitialiseStack
    tasks.o(i.xTaskCreate) refers to tasks.o(i.prvAddNewTaskToReadyList) for prvAddNewTaskToReadyList
    tasks.o(i.xTaskCreate) refers to heap_4.o(i.vPortFree) for vPortFree
    tasks.o(i.xTaskCreateStatic) refers to aeabi_memset.o(.text) for __aeabi_memset
    tasks.o(i.xTaskCreateStatic) refers to list.o(i.vListInitialiseItem) for vListInitialiseItem
    tasks.o(i.xTaskCreateStatic) refers to port.o(i.pxPortInitialiseStack) for pxPortInitialiseStack
    tasks.o(i.xTaskCreateStatic) refers to tasks.o(i.prvAddNewTaskToReadyList) for prvAddNewTaskToReadyList
    tasks.o(i.xTaskGenericNotify) refers to port.o(i.vPortEnterCritical) for vPortEnterCritical
    tasks.o(i.xTaskGenericNotify) refers to list.o(i.uxListRemove) for uxListRemove
    tasks.o(i.xTaskGenericNotify) refers to list.o(i.vListInsertEnd) for vListInsertEnd
    tasks.o(i.xTaskGenericNotify) refers to port.o(i.vPortExitCritical) for vPortExitCritical
    tasks.o(i.xTaskGenericNotify) refers to tasks.o(.data) for .data
    tasks.o(i.xTaskGenericNotify) refers to tasks.o(.bss) for .bss
    tasks.o(i.xTaskGenericNotifyFromISR) refers to list.o(i.vListInsertEnd) for vListInsertEnd
    tasks.o(i.xTaskGenericNotifyFromISR) refers to list.o(i.uxListRemove) for uxListRemove
    tasks.o(i.xTaskGenericNotifyFromISR) refers to tasks.o(.data) for .data
    tasks.o(i.xTaskGenericNotifyFromISR) refers to tasks.o(.bss) for .bss
    tasks.o(i.xTaskGetCurrentTaskHandle) refers to tasks.o(.data) for .data
    tasks.o(i.xTaskGetSchedulerState) refers to tasks.o(.data) for .data
    tasks.o(i.xTaskGetTickCount) refers to tasks.o(.data) for .data
    tasks.o(i.xTaskGetTickCountFromISR) refers to tasks.o(.data) for .data
    tasks.o(i.xTaskIncrementTick) refers to list.o(i.uxListRemove) for uxListRemove
    tasks.o(i.xTaskIncrementTick) refers to list.o(i.vListInsertEnd) for vListInsertEnd
    tasks.o(i.xTaskIncrementTick) refers to tasks.o(.data) for .data
    tasks.o(i.xTaskIncrementTick) refers to tasks.o(.bss) for .bss
    tasks.o(i.xTaskNotifyStateClear) refers to port.o(i.vPortEnterCritical) for vPortEnterCritical
    tasks.o(i.xTaskNotifyStateClear) refers to port.o(i.vPortExitCritical) for vPortExitCritical
    tasks.o(i.xTaskNotifyStateClear) refers to tasks.o(.data) for .data
    tasks.o(i.xTaskNotifyWait) refers to port.o(i.vPortEnterCritical) for vPortEnterCritical
    tasks.o(i.xTaskNotifyWait) refers to tasks.o(i.prvAddCurrentTaskToDelayedList) for prvAddCurrentTaskToDelayedList
    tasks.o(i.xTaskNotifyWait) refers to port.o(i.vPortExitCritical) for vPortExitCritical
    tasks.o(i.xTaskNotifyWait) refers to tasks.o(.data) for .data
    tasks.o(i.xTaskPriorityDisinherit) refers to list.o(i.uxListRemove) for uxListRemove
    tasks.o(i.xTaskPriorityDisinherit) refers to list.o(i.vListInsertEnd) for vListInsertEnd
    tasks.o(i.xTaskPriorityDisinherit) refers to tasks.o(.bss) for .bss
    tasks.o(i.xTaskPriorityDisinherit) refers to tasks.o(.data) for .data
    tasks.o(i.xTaskPriorityInherit) refers to list.o(i.uxListRemove) for uxListRemove
    tasks.o(i.xTaskPriorityInherit) refers to list.o(i.vListInsertEnd) for vListInsertEnd
    tasks.o(i.xTaskPriorityInherit) refers to tasks.o(.data) for .data
    tasks.o(i.xTaskPriorityInherit) refers to tasks.o(.bss) for .bss
    tasks.o(i.xTaskRemoveFromEventList) refers to list.o(i.uxListRemove) for uxListRemove
    tasks.o(i.xTaskRemoveFromEventList) refers to list.o(i.vListInsertEnd) for vListInsertEnd
    tasks.o(i.xTaskRemoveFromEventList) refers to tasks.o(.data) for .data
    tasks.o(i.xTaskRemoveFromEventList) refers to tasks.o(.bss) for .bss
    tasks.o(i.xTaskResumeAll) refers to port.o(i.vPortEnterCritical) for vPortEnterCritical
    tasks.o(i.xTaskResumeAll) refers to list.o(i.uxListRemove) for uxListRemove
    tasks.o(i.xTaskResumeAll) refers to list.o(i.vListInsertEnd) for vListInsertEnd
    tasks.o(i.xTaskResumeAll) refers to port.o(i.vPortExitCritical) for vPortExitCritical
    tasks.o(i.xTaskResumeAll) refers to tasks.o(.data) for .data
    tasks.o(i.xTaskResumeAll) refers to tasks.o(.bss) for .bss
    tasks.o(i.xTaskResumeFromISR) refers to list.o(i.uxListRemove) for uxListRemove
    tasks.o(i.xTaskResumeFromISR) refers to list.o(i.vListInsertEnd) for vListInsertEnd
    tasks.o(i.xTaskResumeFromISR) refers to tasks.o(.bss) for .bss
    tasks.o(i.xTaskResumeFromISR) refers to tasks.o(.data) for .data
    timers.o(i.prvSampleTimeNow) refers to tasks.o(i.xTaskGetTickCount) for xTaskGetTickCount
    timers.o(i.prvSampleTimeNow) refers to list.o(i.uxListRemove) for uxListRemove
    timers.o(i.prvSampleTimeNow) refers to list.o(i.vListInsert) for vListInsert
    timers.o(i.prvSampleTimeNow) refers to tasks.o(i.xTaskGetSchedulerState) for xTaskGetSchedulerState
    timers.o(i.prvSampleTimeNow) refers to queue.o(i.xQueueGenericSend) for xQueueGenericSend
    timers.o(i.prvSampleTimeNow) refers to timers.o(.data) for .data
    timers.o(i.prvTimerTask) refers to tasks.o(i.vTaskSuspendAll) for vTaskSuspendAll
    timers.o(i.prvTimerTask) refers to timers.o(i.prvSampleTimeNow) for prvSampleTimeNow
    timers.o(i.prvTimerTask) refers to tasks.o(i.xTaskResumeAll) for xTaskResumeAll
    timers.o(i.prvTimerTask) refers to queue.o(i.xQueueReceive) for xQueueReceive
    timers.o(i.prvTimerTask) refers to list.o(i.uxListRemove) for uxListRemove
    timers.o(i.prvTimerTask) refers to tasks.o(i.xTaskGetTickCount) for xTaskGetTickCount
    timers.o(i.prvTimerTask) refers to list.o(i.vListInsert) for vListInsert
    timers.o(i.prvTimerTask) refers to queue.o(i.vQueueWaitForMessageRestricted) for vQueueWaitForMessageRestricted
    timers.o(i.prvTimerTask) refers to tasks.o(i.xTaskGetSchedulerState) for xTaskGetSchedulerState
    timers.o(i.prvTimerTask) refers to queue.o(i.xQueueGenericSend) for xQueueGenericSend
    timers.o(i.prvTimerTask) refers to heap_4.o(i.vPortFree) for vPortFree
    timers.o(i.prvTimerTask) refers to timers.o(.data) for .data
    timers.o(i.pvTimerGetTimerID) refers to port.o(i.vPortEnterCritical) for vPortEnterCritical
    timers.o(i.pvTimerGetTimerID) refers to port.o(i.vPortExitCritical) for vPortExitCritical
    timers.o(i.uxTimerGetReloadMode) refers to port.o(i.vPortEnterCritical) for vPortEnterCritical
    timers.o(i.uxTimerGetReloadMode) refers to port.o(i.vPortExitCritical) for vPortExitCritical
    timers.o(i.vTimerSetReloadMode) refers to port.o(i.vPortEnterCritical) for vPortEnterCritical
    timers.o(i.vTimerSetReloadMode) refers to port.o(i.vPortExitCritical) for vPortExitCritical
    timers.o(i.vTimerSetTimerID) refers to port.o(i.vPortEnterCritical) for vPortEnterCritical
    timers.o(i.vTimerSetTimerID) refers to port.o(i.vPortExitCritical) for vPortExitCritical
    timers.o(i.xTimerCreate) refers to heap_4.o(i.pvPortMalloc) for pvPortMalloc
    timers.o(i.xTimerCreate) refers to port.o(i.vPortEnterCritical) for vPortEnterCritical
    timers.o(i.xTimerCreate) refers to list.o(i.vListInitialise) for vListInitialise
    timers.o(i.xTimerCreate) refers to queue.o(i.xQueueGenericCreateStatic) for xQueueGenericCreateStatic
    timers.o(i.xTimerCreate) refers to port.o(i.vPortExitCritical) for vPortExitCritical
    timers.o(i.xTimerCreate) refers to list.o(i.vListInitialiseItem) for vListInitialiseItem
    timers.o(i.xTimerCreate) refers to timers.o(.data) for .data
    timers.o(i.xTimerCreate) refers to timers.o(.bss) for .bss
    timers.o(i.xTimerCreateStatic) refers to port.o(i.vPortEnterCritical) for vPortEnterCritical
    timers.o(i.xTimerCreateStatic) refers to list.o(i.vListInitialise) for vListInitialise
    timers.o(i.xTimerCreateStatic) refers to queue.o(i.xQueueGenericCreateStatic) for xQueueGenericCreateStatic
    timers.o(i.xTimerCreateStatic) refers to port.o(i.vPortExitCritical) for vPortExitCritical
    timers.o(i.xTimerCreateStatic) refers to list.o(i.vListInitialiseItem) for vListInitialiseItem
    timers.o(i.xTimerCreateStatic) refers to timers.o(.data) for .data
    timers.o(i.xTimerCreateStatic) refers to timers.o(.bss) for .bss
    timers.o(i.xTimerCreateTimerTask) refers to port.o(i.vPortEnterCritical) for vPortEnterCritical
    timers.o(i.xTimerCreateTimerTask) refers to list.o(i.vListInitialise) for vListInitialise
    timers.o(i.xTimerCreateTimerTask) refers to queue.o(i.xQueueGenericCreateStatic) for xQueueGenericCreateStatic
    timers.o(i.xTimerCreateTimerTask) refers to port.o(i.vPortExitCritical) for vPortExitCritical
    timers.o(i.xTimerCreateTimerTask) refers to freertosappstaticalloc.o(i.vApplicationGetTimerTaskMemory) for vApplicationGetTimerTaskMemory
    timers.o(i.xTimerCreateTimerTask) refers to tasks.o(i.xTaskCreateStatic) for xTaskCreateStatic
    timers.o(i.xTimerCreateTimerTask) refers to timers.o(.data) for .data
    timers.o(i.xTimerCreateTimerTask) refers to timers.o(.bss) for .bss
    timers.o(i.xTimerCreateTimerTask) refers to timers.o(i.prvTimerTask) for prvTimerTask
    timers.o(i.xTimerGenericCommand) refers to tasks.o(i.xTaskGetSchedulerState) for xTaskGetSchedulerState
    timers.o(i.xTimerGenericCommand) refers to queue.o(i.xQueueGenericSend) for xQueueGenericSend
    timers.o(i.xTimerGenericCommand) refers to queue.o(i.xQueueGenericSendFromISR) for xQueueGenericSendFromISR
    timers.o(i.xTimerGenericCommand) refers to timers.o(.data) for .data
    timers.o(i.xTimerGetTimerDaemonTaskHandle) refers to timers.o(.data) for .data
    timers.o(i.xTimerIsTimerActive) refers to port.o(i.vPortEnterCritical) for vPortEnterCritical
    timers.o(i.xTimerIsTimerActive) refers to port.o(i.vPortExitCritical) for vPortExitCritical
    lpc17xx_adc.o(i.ADC_BurstCmd) refers to lpc17xx_libcfg_default.o(i.check_failed) for check_failed
    lpc17xx_adc.o(i.ADC_ChannelCmd) refers to lpc17xx_libcfg_default.o(i.check_failed) for check_failed
    lpc17xx_adc.o(i.ADC_ChannelGetData) refers to lpc17xx_libcfg_default.o(i.check_failed) for check_failed
    lpc17xx_adc.o(i.ADC_ChannelGetStatus) refers to lpc17xx_libcfg_default.o(i.check_failed) for check_failed
    lpc17xx_adc.o(i.ADC_DeInit) refers to lpc17xx_libcfg_default.o(i.check_failed) for check_failed
    lpc17xx_adc.o(i.ADC_DeInit) refers to lpc17xx_clkpwr.o(i.CLKPWR_ConfigPPWR) for CLKPWR_ConfigPPWR
    lpc17xx_adc.o(i.ADC_EdgeStartConfig) refers to lpc17xx_libcfg_default.o(i.check_failed) for check_failed
    lpc17xx_adc.o(i.ADC_GlobalGetData) refers to lpc17xx_libcfg_default.o(i.check_failed) for check_failed
    lpc17xx_adc.o(i.ADC_GlobalGetStatus) refers to lpc17xx_libcfg_default.o(i.check_failed) for check_failed
    lpc17xx_adc.o(i.ADC_Init) refers to lpc17xx_libcfg_default.o(i.check_failed) for check_failed
    lpc17xx_adc.o(i.ADC_Init) refers to lpc17xx_clkpwr.o(i.CLKPWR_ConfigPPWR) for CLKPWR_ConfigPPWR
    lpc17xx_adc.o(i.ADC_Init) refers to lpc17xx_clkpwr.o(i.CLKPWR_GetPCLK) for CLKPWR_GetPCLK
    lpc17xx_adc.o(i.ADC_IntConfig) refers to lpc17xx_libcfg_default.o(i.check_failed) for check_failed
    lpc17xx_adc.o(i.ADC_PowerdownCmd) refers to lpc17xx_libcfg_default.o(i.check_failed) for check_failed
    lpc17xx_adc.o(i.ADC_StartCmd) refers to lpc17xx_libcfg_default.o(i.check_failed) for check_failed
    lpc17xx_uart.o(i.UART_ABClearIntPending) refers to lpc17xx_libcfg_default.o(i.check_failed) for check_failed
    lpc17xx_uart.o(i.UART_ABCmd) refers to lpc17xx_libcfg_default.o(i.check_failed) for check_failed
    lpc17xx_uart.o(i.UART_DeInit) refers to lpc17xx_libcfg_default.o(i.check_failed) for check_failed
    lpc17xx_uart.o(i.UART_DeInit) refers to lpc17xx_clkpwr.o(i.CLKPWR_ConfigPPWR) for CLKPWR_ConfigPPWR
    lpc17xx_uart.o(i.UART_DeInit) refers to lpc17xx_uart.o(i.UART_TxCmd) for i.UART_TxCmd
    lpc17xx_uart.o(i.UART_FIFOConfig) refers to lpc17xx_libcfg_default.o(i.check_failed) for check_failed
    lpc17xx_uart.o(i.UART_ForceBreak) refers to lpc17xx_libcfg_default.o(i.check_failed) for check_failed
    lpc17xx_uart.o(i.UART_FullModemConfigMode) refers to lpc17xx_libcfg_default.o(i.check_failed) for check_failed
    lpc17xx_uart.o(i.UART_FullModemForcePinState) refers to lpc17xx_libcfg_default.o(i.check_failed) for check_failed
    lpc17xx_uart.o(i.UART_FullModemGetStatus) refers to lpc17xx_libcfg_default.o(i.check_failed) for check_failed
    lpc17xx_uart.o(i.UART_GetIntId) refers to lpc17xx_libcfg_default.o(i.check_failed) for check_failed
    lpc17xx_uart.o(i.UART_GetLineStatus) refers to lpc17xx_libcfg_default.o(i.check_failed) for check_failed
    lpc17xx_uart.o(i.UART_Init) refers to lpc17xx_libcfg_default.o(i.check_failed) for check_failed
    lpc17xx_uart.o(i.UART_Init) refers to lpc17xx_clkpwr.o(i.CLKPWR_ConfigPPWR) for CLKPWR_ConfigPPWR
    lpc17xx_uart.o(i.UART_Init) refers to lpc17xx_clkpwr.o(i.CLKPWR_GetPCLK) for CLKPWR_GetPCLK
    lpc17xx_uart.o(i.UART_Init) refers to lludivv7m.o(.text) for __aeabi_uldivmod
    lpc17xx_uart.o(i.UART_IntConfig) refers to lpc17xx_libcfg_default.o(i.check_failed) for check_failed
    lpc17xx_uart.o(i.UART_IrDACmd) refers to lpc17xx_libcfg_default.o(i.check_failed) for check_failed
    lpc17xx_uart.o(i.UART_IrDAInvtInputCmd) refers to lpc17xx_libcfg_default.o(i.check_failed) for check_failed
    lpc17xx_uart.o(i.UART_IrDAPulseDivConfig) refers to lpc17xx_libcfg_default.o(i.check_failed) for check_failed
    lpc17xx_uart.o(i.UART_RS485Config) refers to lpc17xx_libcfg_default.o(i.check_failed) for check_failed
    lpc17xx_uart.o(i.UART_RS485Send) refers to lpc17xx_uart.o(i.UART_Send) for UART_Send
    lpc17xx_uart.o(i.UART_RS485SendData) refers to lpc17xx_uart.o(i.UART_Send) for UART_Send
    lpc17xx_uart.o(i.UART_RS485SendSlvAddr) refers to lpc17xx_uart.o(i.UART_Send) for UART_Send
    lpc17xx_uart.o(i.UART_Receive) refers to lpc17xx_libcfg_default.o(i.check_failed) for check_failed
    lpc17xx_uart.o(i.UART_Receive) refers to lpc17xx_uart.o(i.UART_TxCmd) for i.UART_TxCmd
    lpc17xx_uart.o(i.UART_ReceiveByte) refers to lpc17xx_libcfg_default.o(i.check_failed) for check_failed
    lpc17xx_uart.o(i.UART_ReceiveByte) refers to lpc17xx_uart.o(i.UART_TxCmd) for i.UART_TxCmd
    lpc17xx_uart.o(i.UART_Send) refers to lpc17xx_libcfg_default.o(i.check_failed) for check_failed
    lpc17xx_uart.o(i.UART_Send) refers to lpc17xx_uart.o(i.UART_TxCmd) for i.UART_TxCmd
    lpc17xx_uart.o(i.UART_SendByte) refers to lpc17xx_libcfg_default.o(i.check_failed) for check_failed
    lpc17xx_uart.o(i.UART_SendByte) refers to lpc17xx_uart.o(i.UART_TxCmd) for i.UART_TxCmd
    lpc17xx_uart.o(i.UART_TxCmd) refers to lpc17xx_libcfg_default.o(i.check_failed) for check_failed
    freertos_ip.o(i.FreeRTOS_GetAddressConfiguration) refers to freertos_udp_ip.o(.data) for xDefaultPartUDPPacketHeader
    freertos_ip.o(i.FreeRTOS_GetAddressConfiguration) refers to freertos_ip.o(.bss) for xNetworkAddressing
    freertos_ip.o(i.FreeRTOS_GetDNSServerAddress) refers to freertos_ip.o(.bss) for xNetworkAddressing
    freertos_ip.o(i.FreeRTOS_GetGatewayAddress) refers to freertos_ip.o(.bss) for xNetworkAddressing
    freertos_ip.o(i.FreeRTOS_GetIPAddress) refers to freertos_udp_ip.o(.data) for xDefaultPartUDPPacketHeader
    freertos_ip.o(i.FreeRTOS_GetMACAddress) refers to freertos_udp_ip.o(.data) for xDefaultPartUDPPacketHeader
    freertos_ip.o(i.FreeRTOS_GetNetmask) refers to freertos_ip.o(.bss) for xNetworkAddressing
    freertos_ip.o(i.FreeRTOS_GetUDPPayloadBuffer) refers to bufferallocation_2.o(i.pxGetNetworkBufferWithDescriptor) for pxGetNetworkBufferWithDescriptor
    freertos_ip.o(i.FreeRTOS_IPInit) refers to queue.o(i.xQueueGenericCreate) for xQueueGenericCreate
    freertos_ip.o(i.FreeRTOS_IPInit) refers to bufferallocation_2.o(i.xNetworkBuffersInitialise) for xNetworkBuffersInitialise
    freertos_ip.o(i.FreeRTOS_IPInit) refers to rt_memcpy_w.o(.text) for __aeabi_memcpy4
    freertos_ip.o(i.FreeRTOS_IPInit) refers to freertos_sockets.o(i.vNetworkSocketsInit) for vNetworkSocketsInit
    freertos_ip.o(i.FreeRTOS_IPInit) refers to tasks.o(i.xTaskCreate) for xTaskCreate
    freertos_ip.o(i.FreeRTOS_IPInit) refers to queue.o(i.vQueueDelete) for vQueueDelete
    freertos_ip.o(i.FreeRTOS_IPInit) refers to freertos_ip.o(.data) for xNetworkEventQueue
    freertos_ip.o(i.FreeRTOS_IPInit) refers to freertos_ip.o(.bss) for xNetworkAddressing
    freertos_ip.o(i.FreeRTOS_IPInit) refers to freertos_udp_ip.o(.data) for xDefaultPartUDPPacketHeader
    freertos_ip.o(i.FreeRTOS_IPInit) refers to freertos_ip.o(i.prvIPTask) for prvIPTask
    freertos_ip.o(i.FreeRTOS_IsNetworkUp) refers to freertos_ip.o(.data) for xNetworkUp
    freertos_ip.o(i.FreeRTOS_NetworkDown) refers to freertos_ip.o(i.xSendEventStructToIPTask) for xSendEventStructToIPTask
    freertos_ip.o(i.FreeRTOS_NetworkDown) refers to freertos_ip.o(.constdata) for xNetworkDownEvent
    freertos_ip.o(i.FreeRTOS_NetworkDown) refers to freertos_ip.o(.data) for xNetworkDownEventPending
    freertos_ip.o(i.FreeRTOS_NetworkDownFromISR) refers to queue.o(i.xQueueGenericSendFromISR) for xQueueGenericSendFromISR
    freertos_ip.o(i.FreeRTOS_NetworkDownFromISR) refers to freertos_ip.o(.constdata) for xNetworkDownEvent
    freertos_ip.o(i.FreeRTOS_NetworkDownFromISR) refers to freertos_ip.o(.data) for xNetworkEventQueue
    freertos_ip.o(i.FreeRTOS_ReleaseUDPPayloadBuffer) refers to freertos_ip.o(i.pxUDPPayloadBuffer_to_NetworkBuffer) for pxUDPPayloadBuffer_to_NetworkBuffer
    freertos_ip.o(i.FreeRTOS_ReleaseUDPPayloadBuffer) refers to bufferallocation_2.o(i.vReleaseNetworkBufferAndDescriptor) for vReleaseNetworkBufferAndDescriptor
    freertos_ip.o(i.FreeRTOS_SetAddressConfiguration) refers to freertos_udp_ip.o(.data) for xDefaultPartUDPPacketHeader
    freertos_ip.o(i.FreeRTOS_SetAddressConfiguration) refers to freertos_ip.o(.bss) for xNetworkAddressing
    freertos_ip.o(i.FreeRTOS_SetGatewayAddress) refers to freertos_ip.o(.bss) for xNetworkAddressing
    freertos_ip.o(i.FreeRTOS_SetIPAddress) refers to freertos_udp_ip.o(.data) for xDefaultPartUDPPacketHeader
    freertos_ip.o(i.FreeRTOS_SetNetmask) refers to freertos_ip.o(.bss) for xNetworkAddressing
    freertos_ip.o(i.eConsiderFrameForProcessing) refers to memcmp.o(.text) for memcmp
    freertos_ip.o(i.eConsiderFrameForProcessing) refers to freertos_ip.o(.constdata) for xBroadcastMACAddress
    freertos_ip.o(i.eConsiderFrameForProcessing) refers to freertos_udp_ip.o(.data) for xDefaultPartUDPPacketHeader
    freertos_ip.o(i.prvAllowIPPacket) refers to freertos_ip.o(i.usGenerateChecksum) for usGenerateChecksum
    freertos_ip.o(i.prvAllowIPPacket) refers to freertos_ip.o(i.usGenerateProtocolChecksum) for usGenerateProtocolChecksum
    freertos_ip.o(i.prvAllowIPPacket) refers to freertos_udp_ip.o(.data) for xDefaultPartUDPPacketHeader
    freertos_ip.o(i.prvAllowIPPacket) refers to freertos_ip.o(.bss) for xNetworkAddressing
    freertos_ip.o(i.prvCalculateSleepTime) refers to freertos_ip.o(.bss) for xARPTimer
    freertos_ip.o(i.prvCheckNetworkTimers) refers to freertos_ip.o(i.prvIPTimerCheck) for prvIPTimerCheck
    freertos_ip.o(i.prvCheckNetworkTimers) refers to freertos_ip.o(i.xSendEventToIPTask) for xSendEventToIPTask
    freertos_ip.o(i.prvCheckNetworkTimers) refers to queue.o(i.uxQueueMessagesWaiting) for uxQueueMessagesWaiting
    freertos_ip.o(i.prvCheckNetworkTimers) refers to tasks.o(i.xTaskGetTickCount) for xTaskGetTickCount
    freertos_ip.o(i.prvCheckNetworkTimers) refers to freertos_sockets.o(i.xTCPTimerCheck) for xTCPTimerCheck
    freertos_ip.o(i.prvCheckNetworkTimers) refers to freertos_ip.o(i.prvIPTimerStart) for prvIPTimerStart
    freertos_ip.o(i.prvCheckNetworkTimers) refers to freertos_ip.o(.bss) for xARPTimer
    freertos_ip.o(i.prvCheckNetworkTimers) refers to freertos_ip.o(.data) for xNetworkEventQueue
    freertos_ip.o(i.prvCheckNetworkTimers) refers to freertos_tcp_ip.o(.data) for ulNextInitialSequenceNumber
    freertos_ip.o(i.prvHandleEthernetPacket) refers to queue.o(i.uxQueueMessagesWaiting) for uxQueueMessagesWaiting
    freertos_ip.o(i.prvHandleEthernetPacket) refers to freertos_ip.o(i.prvProcessEthernetPacket) for prvProcessEthernetPacket
    freertos_ip.o(i.prvHandleEthernetPacket) refers to freertos_ip.o(.data) for xNetworkEventQueue
    freertos_ip.o(i.prvIPTask) refers to freertos_ip.o(i.FreeRTOS_NetworkDown) for FreeRTOS_NetworkDown
    freertos_ip.o(i.prvIPTask) refers to freertos_ip.o(i.prvIPTimerReload) for prvIPTimerReload
    freertos_ip.o(i.prvIPTask) refers to freertos_ip.o(i.prvCheckNetworkTimers) for prvCheckNetworkTimers
    freertos_ip.o(i.prvIPTask) refers to freertos_ip.o(i.prvCalculateSleepTime) for prvCalculateSleepTime
    freertos_ip.o(i.prvIPTask) refers to queue.o(i.xQueueReceive) for xQueueReceive
    freertos_ip.o(i.prvIPTask) refers to freertos_ip.o(i.prvProcessNetworkDownEvent) for prvProcessNetworkDownEvent
    freertos_ip.o(i.prvIPTask) refers to freertos_ip.o(i.prvHandleEthernetPacket) for prvHandleEthernetPacket
    freertos_ip.o(i.prvIPTask) refers to freertos_arp.o(i.vARPAgeCache) for vARPAgeCache
    freertos_ip.o(i.prvIPTask) refers to freertos_sockets.o(i.vSocketBind) for vSocketBind
    freertos_ip.o(i.prvIPTask) refers to freertos_sockets.o(i.vWakeUpSocketUser) for vWakeUpSocketUser
    freertos_ip.o(i.prvIPTask) refers to freertos_sockets.o(i.vSocketClose) for vSocketClose
    freertos_ip.o(i.prvIPTask) refers to freertos_udp_ip.o(i.vProcessGeneratedUDPPacket) for vProcessGeneratedUDPPacket
    freertos_ip.o(i.prvIPTask) refers to freertos_tcp_ip.o(i.xTCPCheckNewClient) for xTCPCheckNewClient
    freertos_ip.o(i.prvIPTask) refers to freertos_ip.o(.bss) for xTCPTimer
    freertos_ip.o(i.prvIPTask) refers to freertos_ip.o(.data) for xIPTaskInitialised
    freertos_ip.o(i.prvIPTimerCheck) refers to tasks.o(i.xTaskCheckForTimeOut) for xTaskCheckForTimeOut
    freertos_ip.o(i.prvIPTimerCheck) refers to freertos_ip.o(i.prvIPTimerStart) for prvIPTimerStart
    freertos_ip.o(i.prvIPTimerReload) refers to freertos_ip.o(i.prvIPTimerStart) for prvIPTimerStart
    freertos_ip.o(i.prvIPTimerStart) refers to tasks.o(i.vTaskSetTimeOutState) for vTaskSetTimeOutState
    freertos_ip.o(i.prvProcessEthernetPacket) refers to freertos_arp.o(i.eARPProcessPacket) for eARPProcessPacket
    freertos_ip.o(i.prvProcessEthernetPacket) refers to freertos_ip.o(i.prvProcessIPPacket) for prvProcessIPPacket
    freertos_ip.o(i.prvProcessEthernetPacket) refers to freertos_ip.o(i.vReturnEthernetFrame) for vReturnEthernetFrame
    freertos_ip.o(i.prvProcessEthernetPacket) refers to bufferallocation_2.o(i.vReleaseNetworkBufferAndDescriptor) for vReleaseNetworkBufferAndDescriptor
    freertos_ip.o(i.prvProcessICMPEchoRequest) refers to freertos_udp_ip.o(.data) for xDefaultPartUDPPacketHeader
    freertos_ip.o(i.prvProcessICMPPacket) refers to freertos_ip.o(i.prvProcessICMPEchoRequest) for prvProcessICMPEchoRequest
    freertos_ip.o(i.prvProcessIPPacket) refers to freertos_ip.o(i.prvAllowIPPacket) for prvAllowIPPacket
    freertos_ip.o(i.prvProcessIPPacket) refers to rt_memmove_v6.o(.text) for __aeabi_memmove
    freertos_ip.o(i.prvProcessIPPacket) refers to freertos_arp.o(i.vARPRefreshCacheEntry) for vARPRefreshCacheEntry
    freertos_ip.o(i.prvProcessIPPacket) refers to freertos_ip.o(i.prvProcessICMPPacket) for prvProcessICMPPacket
    freertos_ip.o(i.prvProcessIPPacket) refers to freertos_udp_ip.o(i.xProcessReceivedUDPPacket) for xProcessReceivedUDPPacket
    freertos_ip.o(i.prvProcessIPPacket) refers to freertos_tcp_ip.o(i.xProcessReceivedTCPPacket) for xProcessReceivedTCPPacket
    freertos_ip.o(i.prvProcessIPPacket) refers to freertos_udp_ip.o(.data) for xDefaultPartUDPPacketHeader
    freertos_ip.o(i.prvProcessIPPacket) refers to freertos_ip.o(.data) for xProcessedTCPMessage
    freertos_ip.o(i.prvProcessNetworkDownEvent) refers to main.o(i.vApplicationIPNetworkEventHook) for vApplicationIPNetworkEventHook
    freertos_ip.o(i.prvProcessNetworkDownEvent) refers to networkhal.o(i.xNetworkInterfaceInitialise) for xNetworkInterfaceInitialise
    freertos_ip.o(i.prvProcessNetworkDownEvent) refers to tasks.o(i.vTaskDelay) for vTaskDelay
    freertos_ip.o(i.prvProcessNetworkDownEvent) refers to freertos_ip.o(i.FreeRTOS_NetworkDown) for FreeRTOS_NetworkDown
    freertos_ip.o(i.prvProcessNetworkDownEvent) refers to freertos_ip.o(i.vIPNetworkUpCalls) for vIPNetworkUpCalls
    freertos_ip.o(i.prvProcessNetworkDownEvent) refers to freertos_ip.o(.bss) for xARPTimer
    freertos_ip.o(i.prvProcessNetworkDownEvent) refers to freertos_ip.o(.data) for xCallEventHook
    freertos_ip.o(i.pxDuplicateNetworkBufferWithDescriptor) refers to bufferallocation_2.o(i.pxGetNetworkBufferWithDescriptor) for pxGetNetworkBufferWithDescriptor
    freertos_ip.o(i.pxDuplicateNetworkBufferWithDescriptor) refers to rt_memcpy_v6.o(.text) for __aeabi_memcpy
    freertos_ip.o(i.usGenerateProtocolChecksum) refers to freertos_ip.o(i.usGenerateChecksum) for usGenerateChecksum
    freertos_ip.o(i.vIPNetworkUpCalls) refers to main.o(i.vApplicationIPNetworkEventHook) for vApplicationIPNetworkEventHook
    freertos_ip.o(i.vIPNetworkUpCalls) refers to freertos_ip.o(i.prvIPTimerReload) for prvIPTimerReload
    freertos_ip.o(i.vIPNetworkUpCalls) refers to freertos_ip.o(.data) for xNetworkUp
    freertos_ip.o(i.vIPNetworkUpCalls) refers to freertos_ip.o(.bss) for xARPTimer
    freertos_ip.o(i.vReturnEthernetFrame) refers to networkhal.o(i.xNetworkInterfaceOutput) for xNetworkInterfaceOutput
    freertos_ip.o(i.vReturnEthernetFrame) refers to freertos_udp_ip.o(.data) for xDefaultPartUDPPacketHeader
    freertos_ip.o(i.xIPIsNetworkTaskReady) refers to freertos_ip.o(.data) for xIPTaskInitialised
    freertos_ip.o(i.xIsCallingFromIPTask) refers to tasks.o(i.xTaskGetCurrentTaskHandle) for xTaskGetCurrentTaskHandle
    freertos_ip.o(i.xIsCallingFromIPTask) refers to freertos_ip.o(.data) for xIPTaskHandle
    freertos_ip.o(i.xSendEventStructToIPTask) refers to freertos_ip.o(i.xIPIsNetworkTaskReady) for xIPIsNetworkTaskReady
    freertos_ip.o(i.xSendEventStructToIPTask) refers to queue.o(i.uxQueueMessagesWaiting) for uxQueueMessagesWaiting
    freertos_ip.o(i.xSendEventStructToIPTask) refers to freertos_ip.o(i.xIsCallingFromIPTask) for xIsCallingFromIPTask
    freertos_ip.o(i.xSendEventStructToIPTask) refers to queue.o(i.xQueueGenericSend) for xQueueGenericSend
    freertos_ip.o(i.xSendEventStructToIPTask) refers to freertos_ip.o(.bss) for xTCPTimer
    freertos_ip.o(i.xSendEventStructToIPTask) refers to freertos_ip.o(.data) for xNetworkEventQueue
    freertos_ip.o(i.xSendEventToIPTask) refers to freertos_ip.o(i.xSendEventStructToIPTask) for xSendEventStructToIPTask
    freertos_sockets.o(i.FreeRTOS_GetLocalAddress) refers to freertos_udp_ip.o(.data) for xDefaultPartUDPPacketHeader
    freertos_sockets.o(i.FreeRTOS_accept) refers to freertos_sockets.o(i.prvValidSocket) for prvValidSocket
    freertos_sockets.o(i.FreeRTOS_accept) refers to tasks.o(i.vTaskSuspendAll) for vTaskSuspendAll
    freertos_sockets.o(i.FreeRTOS_accept) refers to tasks.o(i.xTaskResumeAll) for xTaskResumeAll
    freertos_sockets.o(i.FreeRTOS_accept) refers to freertos_ip.o(i.xSendEventStructToIPTask) for xSendEventStructToIPTask
    freertos_sockets.o(i.FreeRTOS_accept) refers to tasks.o(i.vTaskSetTimeOutState) for vTaskSetTimeOutState
    freertos_sockets.o(i.FreeRTOS_accept) refers to tasks.o(i.xTaskCheckForTimeOut) for xTaskCheckForTimeOut
    freertos_sockets.o(i.FreeRTOS_accept) refers to event_groups.o(i.xEventGroupWaitBits) for xEventGroupWaitBits
    freertos_sockets.o(i.FreeRTOS_bind) refers to freertos_ip.o(i.xSendEventStructToIPTask) for xSendEventStructToIPTask
    freertos_sockets.o(i.FreeRTOS_bind) refers to event_groups.o(i.xEventGroupWaitBits) for xEventGroupWaitBits
    freertos_sockets.o(i.FreeRTOS_closesocket) refers to freertos_ip.o(i.xSendEventStructToIPTask) for xSendEventStructToIPTask
    freertos_sockets.o(i.FreeRTOS_connect) refers to freertos_sockets.o(i.prvTCPConnectStart) for prvTCPConnectStart
    freertos_sockets.o(i.FreeRTOS_connect) refers to tasks.o(i.vTaskSetTimeOutState) for vTaskSetTimeOutState
    freertos_sockets.o(i.FreeRTOS_connect) refers to freertos_sockets.o(i.FreeRTOS_issocketconnected) for FreeRTOS_issocketconnected
    freertos_sockets.o(i.FreeRTOS_connect) refers to tasks.o(i.xTaskCheckForTimeOut) for xTaskCheckForTimeOut
    freertos_sockets.o(i.FreeRTOS_connect) refers to event_groups.o(i.xEventGroupWaitBits) for xEventGroupWaitBits
    freertos_sockets.o(i.FreeRTOS_get_tx_head) refers to freertos_sockets.o(i.lStreamBufferGetSpace) for lStreamBufferGetSpace
    freertos_sockets.o(i.FreeRTOS_listen) refers to freertos_sockets.o(i.prvValidSocket) for prvValidSocket
    freertos_sockets.o(i.FreeRTOS_listen) refers to freertos_sockets.o(i.vStreamBufferClear) for vStreamBufferClear
    freertos_sockets.o(i.FreeRTOS_listen) refers to rt_memclr_w.o(.text) for __aeabi_memclr4
    freertos_sockets.o(i.FreeRTOS_listen) refers to freertos_tcp_ip.o(i.vTCPStateChange) for vTCPStateChange
    freertos_sockets.o(i.FreeRTOS_maywrite) refers to freertos_sockets.o(i.lStreamBufferGetSpace) for lStreamBufferGetSpace
    freertos_sockets.o(i.FreeRTOS_netstat) refers to freertos_ip.o(i.xSendEventStructToIPTask) for xSendEventStructToIPTask
    freertos_sockets.o(i.FreeRTOS_outstanding) refers to freertos_sockets.o(i.lStreamBufferGetSize) for lStreamBufferGetSize
    freertos_sockets.o(i.FreeRTOS_recv) refers to freertos_sockets.o(i.prvValidSocket) for prvValidSocket
    freertos_sockets.o(i.FreeRTOS_recv) refers to freertos_sockets.o(i.lStreamBufferGetSize) for lStreamBufferGetSize
    freertos_sockets.o(i.FreeRTOS_recv) refers to tasks.o(i.vTaskSetTimeOutState) for vTaskSetTimeOutState
    freertos_sockets.o(i.FreeRTOS_recv) refers to tasks.o(i.xTaskCheckForTimeOut) for xTaskCheckForTimeOut
    freertos_sockets.o(i.FreeRTOS_recv) refers to event_groups.o(i.xEventGroupWaitBits) for xEventGroupWaitBits
    freertos_sockets.o(i.FreeRTOS_recv) refers to freertos_stream_buffer.o(i.lStreamBufferGet) for lStreamBufferGet
    freertos_sockets.o(i.FreeRTOS_recv) refers to freertos_sockets.o(i.lStreamBufferFrontSpace) for lStreamBufferFrontSpace
    freertos_sockets.o(i.FreeRTOS_recv) refers to freertos_ip.o(i.xSendEventToIPTask) for xSendEventToIPTask
    freertos_sockets.o(i.FreeRTOS_recvcount) refers to freertos_sockets.o(i.lStreamBufferGetSize) for lStreamBufferGetSize
    freertos_sockets.o(i.FreeRTOS_recvfrom) refers to freertos_sockets.o(i.prvValidSocket) for prvValidSocket
    freertos_sockets.o(i.FreeRTOS_recvfrom) refers to tasks.o(i.vTaskSetTimeOutState) for vTaskSetTimeOutState
    freertos_sockets.o(i.FreeRTOS_recvfrom) refers to event_groups.o(i.xEventGroupWaitBits) for xEventGroupWaitBits
    freertos_sockets.o(i.FreeRTOS_recvfrom) refers to tasks.o(i.xTaskCheckForTimeOut) for xTaskCheckForTimeOut
    freertos_sockets.o(i.FreeRTOS_recvfrom) refers to port.o(i.vPortEnterCritical) for vPortEnterCritical
    freertos_sockets.o(i.FreeRTOS_recvfrom) refers to list.o(i.uxListRemove) for uxListRemove
    freertos_sockets.o(i.FreeRTOS_recvfrom) refers to port.o(i.vPortExitCritical) for vPortExitCritical
    freertos_sockets.o(i.FreeRTOS_recvfrom) refers to rt_memcpy_v6.o(.text) for __aeabi_memcpy
    freertos_sockets.o(i.FreeRTOS_recvfrom) refers to bufferallocation_2.o(i.vReleaseNetworkBufferAndDescriptor) for vReleaseNetworkBufferAndDescriptor
    freertos_sockets.o(i.FreeRTOS_rx_size) refers to freertos_sockets.o(i.lStreamBufferGetSize) for lStreamBufferGetSize
    freertos_sockets.o(i.FreeRTOS_send) refers to freertos_sockets.o(i.prvTCPSendCheck) for prvTCPSendCheck
    freertos_sockets.o(i.FreeRTOS_send) refers to freertos_sockets.o(i.lStreamBufferGetSpace) for lStreamBufferGetSpace
    freertos_sockets.o(i.FreeRTOS_send) refers to tasks.o(i.vTaskSuspendAll) for vTaskSuspendAll
    freertos_sockets.o(i.FreeRTOS_send) refers to freertos_stream_buffer.o(i.lStreamBufferAdd) for lStreamBufferAdd
    freertos_sockets.o(i.FreeRTOS_send) refers to tasks.o(i.xTaskResumeAll) for xTaskResumeAll
    freertos_sockets.o(i.FreeRTOS_send) refers to freertos_ip.o(i.xIsCallingFromIPTask) for xIsCallingFromIPTask
    freertos_sockets.o(i.FreeRTOS_send) refers to freertos_ip.o(i.xSendEventToIPTask) for xSendEventToIPTask
    freertos_sockets.o(i.FreeRTOS_send) refers to tasks.o(i.vTaskSetTimeOutState) for vTaskSetTimeOutState
    freertos_sockets.o(i.FreeRTOS_send) refers to tasks.o(i.xTaskCheckForTimeOut) for xTaskCheckForTimeOut
    freertos_sockets.o(i.FreeRTOS_send) refers to event_groups.o(i.xEventGroupWaitBits) for xEventGroupWaitBits
    freertos_sockets.o(i.FreeRTOS_sendto) refers to freertos_sockets.o(i.FreeRTOS_bind) for FreeRTOS_bind
    freertos_sockets.o(i.FreeRTOS_sendto) refers to tasks.o(i.vTaskSetTimeOutState) for vTaskSetTimeOutState
    freertos_sockets.o(i.FreeRTOS_sendto) refers to bufferallocation_2.o(i.pxGetNetworkBufferWithDescriptor) for pxGetNetworkBufferWithDescriptor
    freertos_sockets.o(i.FreeRTOS_sendto) refers to rt_memcpy_v6.o(.text) for __aeabi_memcpy
    freertos_sockets.o(i.FreeRTOS_sendto) refers to tasks.o(i.xTaskCheckForTimeOut) for xTaskCheckForTimeOut
    freertos_sockets.o(i.FreeRTOS_sendto) refers to freertos_ip.o(i.pxUDPPayloadBuffer_to_NetworkBuffer) for pxUDPPayloadBuffer_to_NetworkBuffer
    freertos_sockets.o(i.FreeRTOS_sendto) refers to freertos_ip.o(i.xSendEventStructToIPTask) for xSendEventStructToIPTask
    freertos_sockets.o(i.FreeRTOS_sendto) refers to bufferallocation_2.o(i.vReleaseNetworkBufferAndDescriptor) for vReleaseNetworkBufferAndDescriptor
    freertos_sockets.o(i.FreeRTOS_sendto) refers to freertos_sockets.o(.constdata) for .constdata
    freertos_sockets.o(i.FreeRTOS_setsockopt) refers to freertos_sockets.o(i.FreeRTOS_outstanding) for FreeRTOS_outstanding
    freertos_sockets.o(i.FreeRTOS_setsockopt) refers to freertos_ip.o(i.xSendEventToIPTask) for xSendEventToIPTask
    freertos_sockets.o(i.FreeRTOS_shutdown) refers to freertos_sockets.o(i.prvValidSocket) for prvValidSocket
    freertos_sockets.o(i.FreeRTOS_shutdown) refers to freertos_ip.o(i.xSendEventToIPTask) for xSendEventToIPTask
    freertos_sockets.o(i.FreeRTOS_socket) refers to freertos_sockets.o(i.prvDetermineSocketSize) for prvDetermineSocketSize
    freertos_sockets.o(i.FreeRTOS_socket) refers to heap_4.o(i.pvPortMalloc) for pvPortMalloc
    freertos_sockets.o(i.FreeRTOS_socket) refers to event_groups.o(i.xEventGroupCreate) for xEventGroupCreate
    freertos_sockets.o(i.FreeRTOS_socket) refers to heap_4.o(i.vPortFree) for vPortFree
    freertos_sockets.o(i.FreeRTOS_socket) refers to rt_memclr_w.o(.text) for __aeabi_memclr4
    freertos_sockets.o(i.FreeRTOS_socket) refers to list.o(i.vListInitialise) for vListInitialise
    freertos_sockets.o(i.FreeRTOS_socket) refers to list.o(i.vListInitialiseItem) for vListInitialiseItem
    freertos_sockets.o(i.FreeRTOS_tx_size) refers to freertos_sockets.o(i.lStreamBufferGetSize) for lStreamBufferGetSize
    freertos_sockets.o(i.FreeRTOS_tx_space) refers to freertos_sockets.o(i.lStreamBufferGetSpace) for lStreamBufferGetSpace
    freertos_sockets.o(i.lStreamBufferFrontSpace) refers to freertos_sockets.o(i.lStreamBufferSpace) for lStreamBufferSpace
    freertos_sockets.o(i.lStreamBufferGetSpace) refers to freertos_sockets.o(i.lStreamBufferSpace) for lStreamBufferSpace
    freertos_sockets.o(i.lTCPAddRxdata) refers to freertos_sockets.o(i.prvTcpCreateStream) for prvTcpCreateStream
    freertos_sockets.o(i.lTCPAddRxdata) refers to freertos_stream_buffer.o(i.lStreamBufferAdd) for lStreamBufferAdd
    freertos_sockets.o(i.lTCPAddRxdata) refers to freertos_sockets.o(i.lStreamBufferFrontSpace) for lStreamBufferFrontSpace
    freertos_sockets.o(i.lTCPAddRxdata) refers to freertos_ip.o(i.xSendEventToIPTask) for xSendEventToIPTask
    freertos_sockets.o(i.prvDetermineSocketSize) refers to freertos_ip.o(i.xIPIsNetworkTaskReady) for xIPIsNetworkTaskReady
    freertos_sockets.o(i.prvGetPrivatePortNumber) refers to freertos_sockets.o(i.pxListFindListItemWithValue) for pxListFindListItemWithValue
    freertos_sockets.o(i.prvGetPrivatePortNumber) refers to freertos_sockets.o(.bss) for xBoundTcpSocketsList
    freertos_sockets.o(i.prvGetPrivatePortNumber) refers to freertos_sockets.o(.data) for usNextPortToUse
    freertos_sockets.o(i.prvTCPConnectStart) refers to freertos_sockets.o(i.prvValidSocket) for prvValidSocket
    freertos_sockets.o(i.prvTCPConnectStart) refers to freertos_sockets.o(i.FreeRTOS_issocketconnected) for FreeRTOS_issocketconnected
    freertos_sockets.o(i.prvTCPConnectStart) refers to freertos_sockets.o(i.FreeRTOS_bind) for FreeRTOS_bind
    freertos_sockets.o(i.prvTCPConnectStart) refers to freertos_sockets.o(i.bMayConnect) for bMayConnect
    freertos_sockets.o(i.prvTCPConnectStart) refers to freertos_tcp_ip.o(i.vTCPStateChange) for vTCPStateChange
    freertos_sockets.o(i.prvTCPConnectStart) refers to freertos_ip.o(i.xSendEventToIPTask) for xSendEventToIPTask
    freertos_sockets.o(i.prvTCPSendCheck) refers to freertos_sockets.o(i.prvValidSocket) for prvValidSocket
    freertos_sockets.o(i.prvTCPSendCheck) refers to freertos_sockets.o(i.prvTcpCreateStream) for prvTcpCreateStream
    freertos_sockets.o(i.prvTCPSetSocketCount) refers to freertos_sockets.o(.bss) for xBoundTcpSocketsList
    freertos_sockets.o(i.prvTcpCreateStream) refers to heap_4.o(i.pvPortMalloc) for pvPortMalloc
    freertos_sockets.o(i.prvTcpCreateStream) refers to freertos_tcp_ip.o(i.vTCPStateChange) for vTCPStateChange
    freertos_sockets.o(i.prvTcpCreateStream) refers to rt_memclr_w.o(.text) for __aeabi_memclr4
    freertos_sockets.o(i.prvTcpCreateStream) refers to freertos_tcp_win.o(.data) for xTCPWindowLoggingLevel
    freertos_sockets.o(i.pxListFindListItemWithValue) refers to freertos_ip.o(i.xIPIsNetworkTaskReady) for xIPIsNetworkTaskReady
    freertos_sockets.o(i.pxTCPSocketLookup) refers to freertos_sockets.o(.bss) for xBoundTcpSocketsList
    freertos_sockets.o(i.pxUDPSocketLookup) refers to freertos_sockets.o(i.pxListFindListItemWithValue) for pxListFindListItemWithValue
    freertos_sockets.o(i.pxUDPSocketLookup) refers to freertos_sockets.o(.bss) for xBoundUdpSocketsList
    freertos_sockets.o(i.vNetworkSocketsInit) refers to list.o(i.vListInitialise) for vListInitialise
    freertos_sockets.o(i.vNetworkSocketsInit) refers to freertos_sockets.o(.bss) for xBoundUdpSocketsList
    freertos_sockets.o(i.vNetworkSocketsInit) refers to freertos_sockets.o(.data) for usNextPortToUse
    freertos_sockets.o(i.vNetworkSocketsInit) refers to freertos_tcp_ip.o(.data) for ulNextInitialSequenceNumber
    freertos_sockets.o(i.vSocketBind) refers to freertos_sockets.o(i.prvGetPrivatePortNumber) for prvGetPrivatePortNumber
    freertos_sockets.o(i.vSocketBind) refers to freertos_sockets.o(i.pxListFindListItemWithValue) for pxListFindListItemWithValue
    freertos_sockets.o(i.vSocketBind) refers to list.o(i.vListInsertEnd) for vListInsertEnd
    freertos_sockets.o(i.vSocketBind) refers to freertos_sockets.o(.bss) for xBoundTcpSocketsList
    freertos_sockets.o(i.vSocketClose) refers to heap_4.o(i.vPortFree) for vPortFree
    freertos_sockets.o(i.vSocketClose) refers to freertos_sockets.o(i.prvTCPSetSocketCount) for prvTCPSetSocketCount
    freertos_sockets.o(i.vSocketClose) refers to list.o(i.uxListRemove) for uxListRemove
    freertos_sockets.o(i.vSocketClose) refers to bufferallocation_2.o(i.vReleaseNetworkBufferAndDescriptor) for vReleaseNetworkBufferAndDescriptor
    freertos_sockets.o(i.vSocketClose) refers to event_groups.o(i.vEventGroupDelete) for vEventGroupDelete
    freertos_sockets.o(i.vWakeUpSocketUser) refers to event_groups.o(i.xEventGroupSetBits) for xEventGroupSetBits
    freertos_sockets.o(i.xTCPTimerCheck) refers to tasks.o(i.xTaskGetTickCount) for xTaskGetTickCount
    freertos_sockets.o(i.xTCPTimerCheck) refers to freertos_tcp_ip.o(i.xTCPSocketCheck) for xTCPSocketCheck
    freertos_sockets.o(i.xTCPTimerCheck) refers to freertos_sockets.o(i.vWakeUpSocketUser) for vWakeUpSocketUser
    freertos_sockets.o(i.xTCPTimerCheck) refers to freertos_sockets.o(.data) for xLastTime
    freertos_sockets.o(i.xTCPTimerCheck) refers to freertos_sockets.o(.bss) for xBoundTcpSocketsList
    freertos_sockets.o(i.xTCPTimerCheck) refers to freertos_ip.o(.data) for uxRxEventCount
    freertosappstaticalloc.o(i.vApplicationGetIdleTaskMemory) refers to freertosappstaticalloc.o(.bss) for .bss
    freertosappstaticalloc.o(i.vApplicationGetTimerTaskMemory) refers to freertosappstaticalloc.o(.bss) for .bss
    event_groups.o(i.vEventGroupClearBitsCallback) refers to port.o(i.vPortEnterCritical) for vPortEnterCritical
    event_groups.o(i.vEventGroupClearBitsCallback) refers to port.o(i.vPortExitCritical) for vPortExitCritical
    event_groups.o(i.vEventGroupDelete) refers to tasks.o(i.vTaskSuspendAll) for vTaskSuspendAll
    event_groups.o(i.vEventGroupDelete) refers to tasks.o(i.vTaskRemoveFromUnorderedEventList) for vTaskRemoveFromUnorderedEventList
    event_groups.o(i.vEventGroupDelete) refers to heap_4.o(i.vPortFree) for vPortFree
    event_groups.o(i.vEventGroupDelete) refers to tasks.o(i.xTaskResumeAll) for xTaskResumeAll
    event_groups.o(i.vEventGroupSetBitsCallback) refers to tasks.o(i.vTaskSuspendAll) for vTaskSuspendAll
    event_groups.o(i.vEventGroupSetBitsCallback) refers to tasks.o(i.vTaskRemoveFromUnorderedEventList) for vTaskRemoveFromUnorderedEventList
    event_groups.o(i.vEventGroupSetBitsCallback) refers to tasks.o(i.xTaskResumeAll) for xTaskResumeAll
    event_groups.o(i.xEventGroupClearBits) refers to port.o(i.vPortEnterCritical) for vPortEnterCritical
    event_groups.o(i.xEventGroupClearBits) refers to port.o(i.vPortExitCritical) for vPortExitCritical
    event_groups.o(i.xEventGroupCreate) refers to heap_4.o(i.pvPortMalloc) for pvPortMalloc
    event_groups.o(i.xEventGroupCreate) refers to list.o(i.vListInitialise) for vListInitialise
    event_groups.o(i.xEventGroupCreateStatic) refers to list.o(i.vListInitialise) for vListInitialise
    event_groups.o(i.xEventGroupSetBits) refers to tasks.o(i.vTaskSuspendAll) for vTaskSuspendAll
    event_groups.o(i.xEventGroupSetBits) refers to tasks.o(i.vTaskRemoveFromUnorderedEventList) for vTaskRemoveFromUnorderedEventList
    event_groups.o(i.xEventGroupSetBits) refers to tasks.o(i.xTaskResumeAll) for xTaskResumeAll
    event_groups.o(i.xEventGroupSync) refers to tasks.o(i.vTaskSuspendAll) for vTaskSuspendAll
    event_groups.o(i.xEventGroupSync) refers to tasks.o(i.vTaskRemoveFromUnorderedEventList) for vTaskRemoveFromUnorderedEventList
    event_groups.o(i.xEventGroupSync) refers to tasks.o(i.xTaskResumeAll) for xTaskResumeAll
    event_groups.o(i.xEventGroupSync) refers to tasks.o(i.vTaskPlaceOnUnorderedEventList) for vTaskPlaceOnUnorderedEventList
    event_groups.o(i.xEventGroupSync) refers to tasks.o(i.uxTaskResetEventItemValue) for uxTaskResetEventItemValue
    event_groups.o(i.xEventGroupSync) refers to port.o(i.vPortEnterCritical) for vPortEnterCritical
    event_groups.o(i.xEventGroupSync) refers to port.o(i.vPortExitCritical) for vPortExitCritical
    event_groups.o(i.xEventGroupWaitBits) refers to tasks.o(i.vTaskSuspendAll) for vTaskSuspendAll
    event_groups.o(i.xEventGroupWaitBits) refers to tasks.o(i.xTaskResumeAll) for xTaskResumeAll
    event_groups.o(i.xEventGroupWaitBits) refers to tasks.o(i.vTaskPlaceOnUnorderedEventList) for vTaskPlaceOnUnorderedEventList
    event_groups.o(i.xEventGroupWaitBits) refers to tasks.o(i.uxTaskResetEventItemValue) for uxTaskResetEventItemValue
    event_groups.o(i.xEventGroupWaitBits) refers to port.o(i.vPortEnterCritical) for vPortEnterCritical
    event_groups.o(i.xEventGroupWaitBits) refers to port.o(i.vPortExitCritical) for vPortExitCritical
    heap_4.o(i.pvPortMalloc) refers to tasks.o(i.vTaskSuspendAll) for vTaskSuspendAll
    heap_4.o(i.pvPortMalloc) refers to tasks.o(i.xTaskResumeAll) for xTaskResumeAll
    heap_4.o(i.pvPortMalloc) refers to heap_4.o(.data) for .data
    heap_4.o(i.pvPortMalloc) refers to heap_4.o(.bss) for .bss
    heap_4.o(i.vPortFree) refers to tasks.o(i.vTaskSuspendAll) for vTaskSuspendAll
    heap_4.o(i.vPortFree) refers to tasks.o(i.xTaskResumeAll) for xTaskResumeAll
    heap_4.o(i.vPortFree) refers to heap_4.o(.data) for .data
    heap_4.o(i.vPortGetHeapStats) refers to tasks.o(i.vTaskSuspendAll) for vTaskSuspendAll
    heap_4.o(i.vPortGetHeapStats) refers to tasks.o(i.xTaskResumeAll) for xTaskResumeAll
    heap_4.o(i.vPortGetHeapStats) refers to port.o(i.vPortEnterCritical) for vPortEnterCritical
    heap_4.o(i.vPortGetHeapStats) refers to port.o(i.vPortExitCritical) for vPortExitCritical
    heap_4.o(i.vPortGetHeapStats) refers to heap_4.o(.data) for .data
    heap_4.o(i.xPortGetFreeHeapSize) refers to heap_4.o(.data) for .data
    heap_4.o(i.xPortGetMinimumEverFreeHeapSize) refers to heap_4.o(.data) for .data
    lpc17xx_clkpwr.o(i.CLKPWR_GetPCLK) refers to system_lpc17xx.o(.data) for SystemCoreClock
    freertos_arp.o(i.FreeRTOS_ClearARP) refers to rt_memclr_w.o(.text) for __aeabi_memclr4
    freertos_arp.o(i.FreeRTOS_ClearARP) refers to freertos_arp.o(.bss) for xARPCache
    freertos_arp.o(i.FreeRTOS_OutputARPRequest) refers to bufferallocation_2.o(i.pxGetNetworkBufferWithDescriptor) for pxGetNetworkBufferWithDescriptor
    freertos_arp.o(i.FreeRTOS_OutputARPRequest) refers to freertos_arp.o(i.vARPGenerateRequestPacket) for vARPGenerateRequestPacket
    freertos_arp.o(i.FreeRTOS_OutputARPRequest) refers to networkhal.o(i.xNetworkInterfaceOutput) for xNetworkInterfaceOutput
    freertos_arp.o(i.eARPGetCacheEntry) refers to freertos_arp.o(i.prvCacheLookup) for prvCacheLookup
    freertos_arp.o(i.eARPGetCacheEntry) refers to freertos_ip.o(.bss) for xNetworkAddressing
    freertos_arp.o(i.eARPGetCacheEntry) refers to freertos_ip.o(.constdata) for xBroadcastMACAddress
    freertos_arp.o(i.eARPGetCacheEntry) refers to freertos_udp_ip.o(.data) for xDefaultPartUDPPacketHeader
    freertos_arp.o(i.eARPProcessPacket) refers to freertos_arp.o(i.vARPRefreshCacheEntry) for vARPRefreshCacheEntry
    freertos_arp.o(i.eARPProcessPacket) refers to freertos_udp_ip.o(.data) for xDefaultPartUDPPacketHeader
    freertos_arp.o(i.eARPProcessPacket) refers to freertos_ip.o(.constdata) for xBroadcastMACAddress
    freertos_arp.o(i.prvCacheLookup) refers to freertos_arp.o(.bss) for xARPCache
    freertos_arp.o(i.vARPAgeCache) refers to freertos_arp.o(i.FreeRTOS_OutputARPRequest) for FreeRTOS_OutputARPRequest
    freertos_arp.o(i.vARPAgeCache) refers to tasks.o(i.xTaskGetTickCount) for xTaskGetTickCount
    freertos_arp.o(i.vARPAgeCache) refers to freertos_arp.o(.bss) for xARPCache
    freertos_arp.o(i.vARPAgeCache) refers to freertos_arp.o(.data) for xLastGratuitousARPTime
    freertos_arp.o(i.vARPAgeCache) refers to freertos_udp_ip.o(.data) for xDefaultPartUDPPacketHeader
    freertos_arp.o(i.vARPGenerateRequestPacket) refers to rt_memcpy_v6.o(.text) for __aeabi_memcpy
    freertos_arp.o(i.vARPGenerateRequestPacket) refers to freertos_arp.o(.constdata) for xDefaultPartARPPacketHeader
    freertos_arp.o(i.vARPGenerateRequestPacket) refers to freertos_udp_ip.o(.data) for xDefaultPartUDPPacketHeader
    freertos_arp.o(i.vARPRefreshCacheEntry) refers to memcmp.o(.text) for memcmp
    freertos_arp.o(i.vARPRefreshCacheEntry) refers to freertos_udp_ip.o(.data) for xDefaultPartUDPPacketHeader
    freertos_arp.o(i.vARPRefreshCacheEntry) refers to freertos_ip.o(.bss) for xNetworkAddressing
    freertos_arp.o(i.vARPRefreshCacheEntry) refers to freertos_arp.o(.bss) for xARPCache
    freertos_arp.o(i.vARPSendGratuitous) refers to freertos_ip.o(i.xSendEventToIPTask) for xSendEventToIPTask
    freertos_arp.o(i.vARPSendGratuitous) refers to freertos_arp.o(.data) for xLastGratuitousARPTime
    freertos_stream_buffer.o(i.lStreamBufferAdd) refers to rt_memcpy_v6.o(.text) for __aeabi_memcpy
    freertos_stream_buffer.o(i.lStreamBufferGet) refers to rt_memcpy_v6.o(.text) for __aeabi_memcpy
    freertos_tcp_ip.o(i.lStreamBufferFrontSpace) refers to freertos_tcp_ip.o(i.lStreamBufferSpace) for lStreamBufferSpace
    freertos_tcp_ip.o(i.lStreamBufferMidSpace) refers to freertos_tcp_ip.o(i.lStreamBufferDistance) for lStreamBufferDistance
    freertos_tcp_ip.o(i.prvHandleEstablished) refers to freertos_tcp_win.o(i.ulTCPWindowTxAck) for ulTCPWindowTxAck
    freertos_tcp_ip.o(i.prvHandleEstablished) refers to freertos_stream_buffer.o(i.lStreamBufferGet) for lStreamBufferGet
    freertos_tcp_ip.o(i.prvHandleEstablished) refers to freertos_tcp_ip.o(i.prvTCPAddTxData) for prvTCPAddTxData
    freertos_tcp_ip.o(i.prvHandleEstablished) refers to freertos_tcp_win.o(i.xTCPWindowRxEmpty) for xTCPWindowRxEmpty
    freertos_tcp_ip.o(i.prvHandleEstablished) refers to freertos_tcp_win.o(i.xTCPWindowTxDone) for xTCPWindowTxDone
    freertos_tcp_ip.o(i.prvHandleEstablished) refers to freertos_tcp_ip.o(i.prvTCPHandleFin) for prvTCPHandleFin
    freertos_tcp_ip.o(i.prvHandleEstablished) refers to freertos_tcp_ip.o(i.prvTCPPrepareSend) for prvTCPPrepareSend
    freertos_tcp_ip.o(i.prvHandleEstablished) refers to freertos_tcp_win.o(.data) for xTCPWindowLoggingLevel
    freertos_tcp_ip.o(i.prvHandleListen) refers to freertos_tcp_ip.o(i.prvTCPSendReset) for prvTCPSendReset
    freertos_tcp_ip.o(i.prvHandleListen) refers to freertos_sockets.o(i.FreeRTOS_socket) for FreeRTOS_socket
    freertos_tcp_ip.o(i.prvHandleListen) refers to freertos_tcp_ip.o(i.prvTCPSocketCopy) for prvTCPSocketCopy
    freertos_tcp_ip.o(i.prvHandleListen) refers to freertos_tcp_ip.o(i.prvSocketSetMSS) for prvSocketSetMSS
    freertos_tcp_ip.o(i.prvHandleListen) refers to freertos_tcp_ip.o(i.prvTCPCreateWindow) for prvTCPCreateWindow
    freertos_tcp_ip.o(i.prvHandleListen) refers to freertos_tcp_ip.o(i.vTCPStateChange) for vTCPStateChange
    freertos_tcp_ip.o(i.prvHandleListen) refers to rt_memcpy_v6.o(.text) for __aeabi_memcpy
    freertos_tcp_ip.o(i.prvHandleListen) refers to freertos_tcp_ip.o(.data) for ulNextInitialSequenceNumber
    freertos_tcp_ip.o(i.prvHandleSynReceived) refers to freertos_tcp_ip.o(i.vTCPStateChange) for vTCPStateChange
    freertos_tcp_ip.o(i.prvHandleSynReceived) refers to freertos_tcp_win.o(i.vTCPWindowInit) for vTCPWindowInit
    freertos_tcp_ip.o(i.prvSendData) refers to freertos_tcp_ip.o(i.lStreamBufferFrontSpace) for lStreamBufferFrontSpace
    freertos_tcp_ip.o(i.prvSendData) refers to freertos_tcp_ip.o(i.prvTCPReturnPacket) for prvTCPReturnPacket
    freertos_tcp_ip.o(i.prvSendData) refers to freertos_tcp_win.o(.data) for xTCPWindowLoggingLevel
    freertos_tcp_ip.o(i.prvSetOptions) refers to freertos_tcp_win.o(.data) for xTCPWindowLoggingLevel
    freertos_tcp_ip.o(i.prvSocketSetMSS) refers to freertos_udp_ip.o(.data) for xDefaultPartUDPPacketHeader
    freertos_tcp_ip.o(i.prvSocketSetMSS) refers to freertos_ip.o(.bss) for xNetworkAddressing
    freertos_tcp_ip.o(i.prvStoreRxData) refers to freertos_tcp_ip.o(i.lStreamBufferSpace) for lStreamBufferSpace
    freertos_tcp_ip.o(i.prvStoreRxData) refers to freertos_tcp_win.o(i.lTCPWindowRxCheck) for lTCPWindowRxCheck
    freertos_tcp_ip.o(i.prvStoreRxData) refers to freertos_sockets.o(i.lTCPAddRxdata) for lTCPAddRxdata
    freertos_tcp_ip.o(i.prvStoreRxData) refers to freertos_tcp_ip.o(i.prvTCPSendReset) for prvTCPSendReset
    freertos_tcp_ip.o(i.prvTCPAddTxData) refers to freertos_tcp_ip.o(i.lStreamBufferMidSpace) for lStreamBufferMidSpace
    freertos_tcp_ip.o(i.prvTCPAddTxData) refers to freertos_tcp_win.o(i.lTCPWindowTxAdd) for lTCPWindowTxAdd
    freertos_tcp_ip.o(i.prvTCPBufferResize) refers to bufferallocation_2.o(i.pxGetNetworkBufferWithDescriptor) for pxGetNetworkBufferWithDescriptor
    freertos_tcp_ip.o(i.prvTCPBufferResize) refers to rt_memcpy_v6.o(.text) for __aeabi_memcpy
    freertos_tcp_ip.o(i.prvTCPBufferResize) refers to bufferallocation_2.o(i.vReleaseNetworkBufferAndDescriptor) for vReleaseNetworkBufferAndDescriptor
    freertos_tcp_ip.o(i.prvTCPBufferResize) refers to bufferallocation_2.o(.constdata) for xBufferAllocFixedSize
    freertos_tcp_ip.o(i.prvTCPCreateWindow) refers to freertos_tcp_win.o(i.vTCPWindowCreate) for vTCPWindowCreate
    freertos_tcp_ip.o(i.prvTCPCreateWindow) refers to freertos_tcp_win.o(.data) for xTCPWindowLoggingLevel
    freertos_tcp_ip.o(i.prvTCPHandleFin) refers to freertos_tcp_ip.o(i.vTCPStateChange) for vTCPStateChange
    freertos_tcp_ip.o(i.prvTCPHandleFin) refers to freertos_tcp_win.o(.data) for xTCPWindowLoggingLevel
    freertos_tcp_ip.o(i.prvTCPHandleState) refers to freertos_tcp_ip.o(i.prvCheckRxData) for prvCheckRxData
    freertos_tcp_ip.o(i.prvTCPHandleState) refers to freertos_tcp_ip.o(i.prvStoreRxData) for prvStoreRxData
    freertos_tcp_ip.o(i.prvTCPHandleState) refers to freertos_tcp_ip.o(i.prvSetOptions) for prvSetOptions
    freertos_tcp_ip.o(i.prvTCPHandleState) refers to freertos_tcp_ip.o(i.vTCPStateChange) for vTCPStateChange
    freertos_tcp_ip.o(i.prvTCPHandleState) refers to freertos_tcp_ip.o(i.prvSetSynAckOptions) for prvSetSynAckOptions
    freertos_tcp_ip.o(i.prvTCPHandleState) refers to freertos_tcp_ip.o(i.prvHandleSynReceived) for prvHandleSynReceived
    freertos_tcp_ip.o(i.prvTCPHandleState) refers to freertos_tcp_ip.o(i.prvHandleEstablished) for prvHandleEstablished
    freertos_tcp_ip.o(i.prvTCPHandleState) refers to freertos_tcp_ip.o(i.prvTCPHandleFin) for prvTCPHandleFin
    freertos_tcp_ip.o(i.prvTCPHandleState) refers to freertos_tcp_ip.o(i.prvSendData) for prvSendData
    freertos_tcp_ip.o(i.prvTCPNextTimeout) refers to freertos_tcp_win.o(i.xTCPWindowTxHasData) for xTCPWindowTxHasData
    freertos_tcp_ip.o(i.prvTCPPrepareConnect) refers to freertos_arp.o(i.eARPGetCacheEntry) for eARPGetCacheEntry
    freertos_tcp_ip.o(i.prvTCPPrepareConnect) refers to freertos_arp.o(i.FreeRTOS_OutputARPRequest) for FreeRTOS_OutputARPRequest
    freertos_tcp_ip.o(i.prvTCPPrepareConnect) refers to rt_memclr_w.o(.text) for __aeabi_memclr4
    freertos_tcp_ip.o(i.prvTCPPrepareConnect) refers to freertos_tcp_ip.o(i.prvSocketSetMSS) for prvSocketSetMSS
    freertos_tcp_ip.o(i.prvTCPPrepareConnect) refers to freertos_tcp_ip.o(i.prvTCPCreateWindow) for prvTCPCreateWindow
    freertos_tcp_ip.o(i.prvTCPPrepareConnect) refers to freertos_udp_ip.o(.data) for xDefaultPartUDPPacketHeader
    freertos_tcp_ip.o(i.prvTCPPrepareConnect) refers to freertos_tcp_ip.o(.data) for ulNextInitialSequenceNumber
    freertos_tcp_ip.o(i.prvTCPPrepareSend) refers to freertos_tcp_win.o(i.ulTCPWindowTxGet) for ulTCPWindowTxGet
    freertos_tcp_ip.o(i.prvTCPPrepareSend) refers to freertos_tcp_ip.o(i.prvTCPBufferResize) for prvTCPBufferResize
    freertos_tcp_ip.o(i.prvTCPPrepareSend) refers to freertos_tcp_ip.o(i.lStreamBufferDistance) for lStreamBufferDistance
    freertos_tcp_ip.o(i.prvTCPPrepareSend) refers to freertos_stream_buffer.o(i.lStreamBufferGet) for lStreamBufferGet
    freertos_tcp_ip.o(i.prvTCPPrepareSend) refers to freertos_tcp_win.o(i.xTCPWindowTxDone) for xTCPWindowTxDone
    freertos_tcp_ip.o(i.prvTCPPrepareSend) refers to freertos_tcp_ip.o(i.vTCPStateChange) for vTCPStateChange
    freertos_tcp_ip.o(i.prvTCPReturnPacket) refers to freertos_tcp_ip.o(i.lStreamBufferFrontSpace) for lStreamBufferFrontSpace
    freertos_tcp_ip.o(i.prvTCPReturnPacket) refers to freertos_ip.o(i.usGenerateChecksum) for usGenerateChecksum
    freertos_tcp_ip.o(i.prvTCPReturnPacket) refers to freertos_ip.o(i.usGenerateProtocolChecksum) for usGenerateProtocolChecksum
    freertos_tcp_ip.o(i.prvTCPReturnPacket) refers to networkhal.o(i.xNetworkInterfaceOutput) for xNetworkInterfaceOutput
    freertos_tcp_ip.o(i.prvTCPReturnPacket) refers to freertos_udp_ip.o(.data) for xDefaultPartUDPPacketHeader
    freertos_tcp_ip.o(i.prvTCPReturnPacket) refers to freertos_ip.o(.data) for usPacketIdentifier
    freertos_tcp_ip.o(i.prvTCPSendPacket) refers to freertos_tcp_ip.o(i.prvTCPSendRepeated) for prvTCPSendRepeated
    freertos_tcp_ip.o(i.prvTCPSendPacket) refers to bufferallocation_2.o(i.vReleaseNetworkBufferAndDescriptor) for vReleaseNetworkBufferAndDescriptor
    freertos_tcp_ip.o(i.prvTCPSendPacket) refers to freertos_tcp_ip.o(i.vTCPStateChange) for vTCPStateChange
    freertos_tcp_ip.o(i.prvTCPSendPacket) refers to freertos_tcp_ip.o(i.prvTCPPrepareConnect) for prvTCPPrepareConnect
    freertos_tcp_ip.o(i.prvTCPSendPacket) refers to freertos_tcp_ip.o(i.prvSetSynAckOptions) for prvSetSynAckOptions
    freertos_tcp_ip.o(i.prvTCPSendPacket) refers to freertos_tcp_ip.o(i.prvTCPReturnPacket) for prvTCPReturnPacket
    freertos_tcp_ip.o(i.prvTCPSendRepeated) refers to freertos_tcp_ip.o(i.prvTCPPrepareSend) for prvTCPPrepareSend
    freertos_tcp_ip.o(i.prvTCPSendRepeated) refers to freertos_tcp_ip.o(i.prvTCPReturnPacket) for prvTCPReturnPacket
    freertos_tcp_ip.o(i.prvTCPSendRepeated) refers to freertos_ip.o(.data) for uxRxEventCount
    freertos_tcp_ip.o(i.prvTCPSendReset) refers to freertos_tcp_ip.o(i.prvTCPReturnPacket) for prvTCPReturnPacket
    freertos_tcp_ip.o(i.prvTCPSocketCopy) refers to freertos_sockets.o(i.vSocketBind) for vSocketBind
    freertos_tcp_ip.o(i.prvTCPSocketCopy) refers to freertos_sockets.o(i.vSocketClose) for vSocketClose
    freertos_tcp_ip.o(i.prvTCPSocketCopy) refers to freertos_udp_ip.o(.data) for xDefaultPartUDPPacketHeader
    freertos_tcp_ip.o(i.prvTCPStatusAgeCheck) refers to tasks.o(i.xTaskGetTickCount) for xTaskGetTickCount
    freertos_tcp_ip.o(i.prvTCPStatusAgeCheck) refers to freertos_tcp_ip.o(i.vTCPStateChange) for vTCPStateChange
    freertos_tcp_ip.o(i.prvTCPStatusAgeCheck) refers to freertos_sockets.o(i.vSocketClose) for vSocketClose
    freertos_tcp_ip.o(i.prvTCPTouchSocket) refers to tasks.o(i.xTaskGetTickCount) for xTaskGetTickCount
    freertos_tcp_ip.o(i.vTCPStateChange) refers to freertos_sockets.o(i.vWakeUpSocketUser) for vWakeUpSocketUser
    freertos_tcp_ip.o(i.vTCPStateChange) refers to freertos_tcp_ip.o(i.prvTCPSocketIsActive) for prvTCPSocketIsActive
    freertos_tcp_ip.o(i.vTCPStateChange) refers to freertos_sockets.o(i.FreeRTOS_closesocket) for FreeRTOS_closesocket
    freertos_tcp_ip.o(i.vTCPStateChange) refers to freertos_tcp_ip.o(i.prvTCPTouchSocket) for prvTCPTouchSocket
    freertos_tcp_ip.o(i.xProcessReceivedTCPPacket) refers to freertos_sockets.o(i.pxTCPSocketLookup) for pxTCPSocketLookup
    freertos_tcp_ip.o(i.xProcessReceivedTCPPacket) refers to freertos_tcp_ip.o(i.prvTCPSocketIsActive) for prvTCPSocketIsActive
    freertos_tcp_ip.o(i.xProcessReceivedTCPPacket) refers to freertos_tcp_ip.o(i.prvTCPSendReset) for prvTCPSendReset
    freertos_tcp_ip.o(i.xProcessReceivedTCPPacket) refers to freertos_tcp_ip.o(i.prvHandleListen) for prvHandleListen
    freertos_tcp_ip.o(i.xProcessReceivedTCPPacket) refers to freertos_tcp_ip.o(i.vTCPStateChange) for vTCPStateChange
    freertos_tcp_ip.o(i.xProcessReceivedTCPPacket) refers to rt_memcpy_v6.o(.text) for __aeabi_memcpy
    freertos_tcp_ip.o(i.xProcessReceivedTCPPacket) refers to freertos_tcp_ip.o(i.prvTCPTouchSocket) for prvTCPTouchSocket
    freertos_tcp_ip.o(i.xProcessReceivedTCPPacket) refers to freertos_tcp_ip.o(i.prvCheckOptions) for prvCheckOptions
    freertos_tcp_ip.o(i.xProcessReceivedTCPPacket) refers to freertos_tcp_ip.o(i.prvTCPHandleState) for prvTCPHandleState
    freertos_tcp_ip.o(i.xProcessReceivedTCPPacket) refers to bufferallocation_2.o(i.vReleaseNetworkBufferAndDescriptor) for vReleaseNetworkBufferAndDescriptor
    freertos_tcp_ip.o(i.xProcessReceivedTCPPacket) refers to freertos_tcp_ip.o(i.prvTCPNextTimeout) for prvTCPNextTimeout
    freertos_tcp_ip.o(i.xTCPCheckNewClient) refers to freertos_sockets.o(.bss) for xBoundTcpSocketsList
    freertos_tcp_ip.o(i.xTCPSocketCheck) refers to freertos_tcp_ip.o(i.prvTCPAddTxData) for prvTCPAddTxData
    freertos_tcp_ip.o(i.xTCPSocketCheck) refers to freertos_tcp_ip.o(i.prvTCPSendPacket) for prvTCPSendPacket
    freertos_tcp_ip.o(i.xTCPSocketCheck) refers to freertos_tcp_ip.o(i.prvTCPNextTimeout) for prvTCPNextTimeout
    freertos_tcp_ip.o(i.xTCPSocketCheck) refers to freertos_tcp_ip.o(i.prvTCPStatusAgeCheck) for prvTCPStatusAgeCheck
    freertos_tcp_win.o(i.lTCPWindowTxAdd) refers to freertos_tcp_win.o(i.vTCPTimerSet) for vTCPTimerSet
    freertos_tcp_win.o(i.lTCPWindowTxAdd) refers to freertos_tcp_win.o(.data) for xTCPWindowLoggingLevel
    freertos_tcp_win.o(i.ulTCPWindowTxAck) refers to freertos_tcp_win.o(.data) for xTCPWindowLoggingLevel
    freertos_tcp_win.o(i.ulTCPWindowTxGet) refers to freertos_tcp_win.o(i.ulTimerGetAge) for ulTimerGetAge
    freertos_tcp_win.o(i.ulTCPWindowTxGet) refers to freertos_tcp_win.o(i.vTCPTimerSet) for vTCPTimerSet
    freertos_tcp_win.o(i.ulTimerGetAge) refers to tasks.o(i.xTaskGetTickCount) for xTaskGetTickCount
    freertos_tcp_win.o(i.vTCPTimerSet) refers to tasks.o(i.xTaskGetTickCount) for xTaskGetTickCount
    freertos_tcp_win.o(i.vTCPWindowCreate) refers to freertos_tcp_win.o(i.vTCPWindowInit) for vTCPWindowInit
    freertos_tcp_win.o(i.vTCPWindowCreate) refers to freertos_tcp_win.o(.data) for xTCPWindowLoggingLevel
    freertos_tcp_win.o(i.xTCPWindowTxHasData) refers to freertos_tcp_win.o(i.ulTimerGetAge) for ulTimerGetAge
    freertos_tcp_win.o(i.xTCPWindowTxHasData) refers to freertos_tcp_win.o(i.prvTCPWindowTxHasSpace) for prvTCPWindowTxHasSpace
    freertos_udp_ip.o(i.vProcessGeneratedUDPPacket) refers to freertos_arp.o(i.eARPGetCacheEntry) for eARPGetCacheEntry
    freertos_udp_ip.o(i.vProcessGeneratedUDPPacket) refers to rt_memcpy_v6.o(.text) for __aeabi_memcpy
    freertos_udp_ip.o(i.vProcessGeneratedUDPPacket) refers to freertos_ip.o(i.usGenerateChecksum) for usGenerateChecksum
    freertos_udp_ip.o(i.vProcessGeneratedUDPPacket) refers to freertos_ip.o(i.usGenerateProtocolChecksum) for usGenerateProtocolChecksum
    freertos_udp_ip.o(i.vProcessGeneratedUDPPacket) refers to freertos_arp.o(i.vARPRefreshCacheEntry) for vARPRefreshCacheEntry
    freertos_udp_ip.o(i.vProcessGeneratedUDPPacket) refers to freertos_arp.o(i.vARPGenerateRequestPacket) for vARPGenerateRequestPacket
    freertos_udp_ip.o(i.vProcessGeneratedUDPPacket) refers to networkhal.o(i.xNetworkInterfaceOutput) for xNetworkInterfaceOutput
    freertos_udp_ip.o(i.vProcessGeneratedUDPPacket) refers to bufferallocation_2.o(i.vReleaseNetworkBufferAndDescriptor) for vReleaseNetworkBufferAndDescriptor
    freertos_udp_ip.o(i.vProcessGeneratedUDPPacket) refers to freertos_udp_ip.o(.data) for xDefaultPartUDPPacketHeader
    freertos_udp_ip.o(i.xProcessReceivedUDPPacket) refers to freertos_sockets.o(i.pxUDPSocketLookup) for pxUDPSocketLookup
    freertos_udp_ip.o(i.xProcessReceivedUDPPacket) refers to freertos_arp.o(i.vARPRefreshCacheEntry) for vARPRefreshCacheEntry
    freertos_udp_ip.o(i.xProcessReceivedUDPPacket) refers to tasks.o(i.vTaskSuspendAll) for vTaskSuspendAll
    freertos_udp_ip.o(i.xProcessReceivedUDPPacket) refers to port.o(i.vPortEnterCritical) for vPortEnterCritical
    freertos_udp_ip.o(i.xProcessReceivedUDPPacket) refers to list.o(i.vListInsertEnd) for vListInsertEnd
    freertos_udp_ip.o(i.xProcessReceivedUDPPacket) refers to port.o(i.vPortExitCritical) for vPortExitCritical
    freertos_udp_ip.o(i.xProcessReceivedUDPPacket) refers to tasks.o(i.xTaskResumeAll) for xTaskResumeAll
    freertos_udp_ip.o(i.xProcessReceivedUDPPacket) refers to event_groups.o(i.xEventGroupSetBits) for xEventGroupSetBits
    freertos_udp_ip.o(i.xProcessReceivedUDPPacket) refers to freertos_dns.o(i.ulDNSHandlePacket) for ulDNSHandlePacket
    bufferallocation_2.o(i.pucGetNetworkBuffer) refers to heap_4.o(i.pvPortMalloc) for pvPortMalloc
    bufferallocation_2.o(i.pxGetNetworkBufferWithDescriptor) refers to queue.o(i.xQueueSemaphoreTake) for xQueueSemaphoreTake
    bufferallocation_2.o(i.pxGetNetworkBufferWithDescriptor) refers to port.o(i.vPortEnterCritical) for vPortEnterCritical
    bufferallocation_2.o(i.pxGetNetworkBufferWithDescriptor) refers to list.o(i.uxListRemove) for uxListRemove
    bufferallocation_2.o(i.pxGetNetworkBufferWithDescriptor) refers to port.o(i.vPortExitCritical) for vPortExitCritical
    bufferallocation_2.o(i.pxGetNetworkBufferWithDescriptor) refers to heap_4.o(i.pvPortMalloc) for pvPortMalloc
    bufferallocation_2.o(i.pxGetNetworkBufferWithDescriptor) refers to bufferallocation_2.o(i.vReleaseNetworkBufferAndDescriptor) for vReleaseNetworkBufferAndDescriptor
    bufferallocation_2.o(i.pxGetNetworkBufferWithDescriptor) refers to bufferallocation_2.o(.data) for xNetworkBufferSemaphore
    bufferallocation_2.o(i.pxGetNetworkBufferWithDescriptor) refers to bufferallocation_2.o(.bss) for xFreeBuffersList
    bufferallocation_2.o(i.uxGetMinimumFreeNetworkBuffers) refers to bufferallocation_2.o(.data) for uxMinimumFreeNetworkBuffers
    bufferallocation_2.o(i.uxGetNumberOfFreeNetworkBuffers) refers to bufferallocation_2.o(.bss) for xFreeBuffersList
    bufferallocation_2.o(i.vReleaseNetworkBuffer) refers to heap_4.o(i.vPortFree) for vPortFree
    bufferallocation_2.o(i.vReleaseNetworkBufferAndDescriptor) refers to bufferallocation_2.o(i.vReleaseNetworkBuffer) for vReleaseNetworkBuffer
    bufferallocation_2.o(i.vReleaseNetworkBufferAndDescriptor) refers to port.o(i.vPortEnterCritical) for vPortEnterCritical
    bufferallocation_2.o(i.vReleaseNetworkBufferAndDescriptor) refers to list.o(i.vListInsertEnd) for vListInsertEnd
    bufferallocation_2.o(i.vReleaseNetworkBufferAndDescriptor) refers to port.o(i.vPortExitCritical) for vPortExitCritical
    bufferallocation_2.o(i.vReleaseNetworkBufferAndDescriptor) refers to queue.o(i.xQueueGenericSend) for xQueueGenericSend
    bufferallocation_2.o(i.vReleaseNetworkBufferAndDescriptor) refers to bufferallocation_2.o(.bss) for xFreeBuffersList
    bufferallocation_2.o(i.vReleaseNetworkBufferAndDescriptor) refers to bufferallocation_2.o(.data) for xNetworkBufferSemaphore
    bufferallocation_2.o(i.xNetworkBuffersInitialise) refers to queue.o(i.xQueueCreateCountingSemaphore) for xQueueCreateCountingSemaphore
    bufferallocation_2.o(i.xNetworkBuffersInitialise) refers to list.o(i.vListInitialise) for vListInitialise
    bufferallocation_2.o(i.xNetworkBuffersInitialise) refers to list.o(i.vListInitialiseItem) for vListInitialiseItem
    bufferallocation_2.o(i.xNetworkBuffersInitialise) refers to list.o(i.vListInsert) for vListInsert
    bufferallocation_2.o(i.xNetworkBuffersInitialise) refers to bufferallocation_2.o(.data) for xNetworkBufferSemaphore
    bufferallocation_2.o(i.xNetworkBuffersInitialise) refers to bufferallocation_2.o(.bss) for xFreeBuffersList
    networkhal.o(i.ENET_IRQHandler) refers to lpc17xx_emac.o(i.EMAC_CheckReceiveIndex) for EMAC_CheckReceiveIndex
    networkhal.o(i.ENET_IRQHandler) refers to queue.o(i.xQueueGiveFromISR) for xQueueGiveFromISR
    networkhal.o(i.ENET_IRQHandler) refers to networkhal.o(.data) for xEMACRxEventSemaphore
    networkhal.o(i.InitialiseNetwork) refers to networkhal.o(i.setEthernetPins) for setEthernetPins
    networkhal.o(i.InitialiseNetwork) refers to queue.o(i.xQueueCreateCountingSemaphore) for xQueueCreateCountingSemaphore
    networkhal.o(i.InitialiseNetwork) refers to tasks.o(i.xTaskCreate) for xTaskCreate
    networkhal.o(i.InitialiseNetwork) refers to lpc17xx_emac.o(i.EMAC_Init) for EMAC_Init
    networkhal.o(i.InitialiseNetwork) refers to networkhal.o(.data) for xEMACRxEventSemaphore
    networkhal.o(i.InitialiseNetwork) refers to networkhal.o(i.prvEMACDeferredInterruptHandlerTask) for prvEMACDeferredInterruptHandlerTask
    networkhal.o(i.InitialiseNetwork) refers to main.o(.data) for ucMACAddress
    networkhal.o(i.SendData) refers to lpc17xx_emac.o(i.EMAC_CheckTransmitIndex) for EMAC_CheckTransmitIndex
    networkhal.o(i.SendData) refers to lpc17xx_emac.o(i.EMAC_WritePacketBuffer) for EMAC_WritePacketBuffer
    networkhal.o(i.SendData) refers to lpc17xx_emac.o(i.EMAC_UpdateTxProduceIndex) for EMAC_UpdateTxProduceIndex
    networkhal.o(i.prvEMACDeferredInterruptHandlerTask) refers to queue.o(i.xQueueSemaphoreTake) for xQueueSemaphoreTake
    networkhal.o(i.prvEMACDeferredInterruptHandlerTask) refers to lpc17xx_emac.o(i.EMAC_CheckReceiveDataStatus) for EMAC_CheckReceiveDataStatus
    networkhal.o(i.prvEMACDeferredInterruptHandlerTask) refers to lpc17xx_emac.o(i.EMAC_GetReceiveDataSize) for EMAC_GetReceiveDataSize
    networkhal.o(i.prvEMACDeferredInterruptHandlerTask) refers to bufferallocation_2.o(i.pxGetNetworkBufferWithDescriptor) for pxGetNetworkBufferWithDescriptor
    networkhal.o(i.prvEMACDeferredInterruptHandlerTask) refers to lpc17xx_emac.o(i.EMAC_ReadPacketBuffer) for EMAC_ReadPacketBuffer
    networkhal.o(i.prvEMACDeferredInterruptHandlerTask) refers to freertos_ip.o(i.eConsiderFrameForProcessing) for eConsiderFrameForProcessing
    networkhal.o(i.prvEMACDeferredInterruptHandlerTask) refers to freertos_ip.o(i.xSendEventStructToIPTask) for xSendEventStructToIPTask
    networkhal.o(i.prvEMACDeferredInterruptHandlerTask) refers to bufferallocation_2.o(i.vReleaseNetworkBufferAndDescriptor) for vReleaseNetworkBufferAndDescriptor
    networkhal.o(i.prvEMACDeferredInterruptHandlerTask) refers to lpc17xx_emac.o(i.EMAC_UpdateRxConsumeIndex) for EMAC_UpdateRxConsumeIndex
    networkhal.o(i.prvEMACDeferredInterruptHandlerTask) refers to lpc17xx_emac.o(i.EMAC_CheckReceiveIndex) for EMAC_CheckReceiveIndex
    networkhal.o(i.prvEMACDeferredInterruptHandlerTask) refers to networkhal.o(.data) for xEMACRxEventSemaphore
    networkhal.o(i.setEthernetPins) refers to lpc17xx_pinsel.o(i.PINSEL_ConfigPin) for PINSEL_ConfigPin
    networkhal.o(i.xNetworkInterfaceInitialise) refers to networkhal.o(i.InitialiseNetwork) for InitialiseNetwork
    networkhal.o(i.xNetworkInterfaceOutput) refers to networkhal.o(i.SendData) for SendData
    networkhal.o(i.xNetworkInterfaceOutput) refers to bufferallocation_2.o(i.vReleaseNetworkBufferAndDescriptor) for vReleaseNetworkBufferAndDescriptor
    freertos_dns.o(i.FreeRTOS_gethostbyname) refers to freertos_dns.o(i.prvGetHostByName) for prvGetHostByName
    freertos_dns.o(i.FreeRTOS_gethostbyname) refers to freertos_dns.o(.data) for usIdentifier
    freertos_dns.o(i.prvCreateDNSMessage) refers to strcpy.o(.text) for strcpy
    freertos_dns.o(i.prvCreateDNSMessage) refers to strlen.o(.text) for strlen
    freertos_dns.o(i.prvCreateDNSMessage) refers to freertos_dns.o(.constdata) for xDefaultPartDNSHeader
    freertos_dns.o(i.prvCreateDNSSocket) refers to freertos_sockets.o(i.FreeRTOS_socket) for FreeRTOS_socket
    freertos_dns.o(i.prvCreateDNSSocket) refers to freertos_sockets.o(i.FreeRTOS_bind) for FreeRTOS_bind
    freertos_dns.o(i.prvCreateDNSSocket) refers to freertos_sockets.o(i.FreeRTOS_closesocket) for FreeRTOS_closesocket
    freertos_dns.o(i.prvCreateDNSSocket) refers to freertos_sockets.o(i.FreeRTOS_setsockopt) for FreeRTOS_setsockopt
    freertos_dns.o(i.prvCreateDNSSocket) refers to freertos_dns.o(.data) for xSocket
    freertos_dns.o(i.prvGetHostByName) refers to strlen.o(.text) for strlen
    freertos_dns.o(i.prvGetHostByName) refers to freertos_dns.o(i.prvCreateDNSSocket) for prvCreateDNSSocket
    freertos_dns.o(i.prvGetHostByName) refers to freertos_sockets.o(i.FreeRTOS_setsockopt) for FreeRTOS_setsockopt
    freertos_dns.o(i.prvGetHostByName) refers to freertos_ip.o(i.FreeRTOS_GetUDPPayloadBuffer) for FreeRTOS_GetUDPPayloadBuffer
    freertos_dns.o(i.prvGetHostByName) refers to freertos_dns.o(i.prvCreateDNSMessage) for prvCreateDNSMessage
    freertos_dns.o(i.prvGetHostByName) refers to freertos_ip.o(i.FreeRTOS_GetAddressConfiguration) for FreeRTOS_GetAddressConfiguration
    freertos_dns.o(i.prvGetHostByName) refers to freertos_sockets.o(i.FreeRTOS_sendto) for FreeRTOS_sendto
    freertos_dns.o(i.prvGetHostByName) refers to freertos_sockets.o(i.FreeRTOS_recvfrom) for FreeRTOS_recvfrom
    freertos_dns.o(i.prvGetHostByName) refers to freertos_dns.o(i.prvParseDNSReply) for prvParseDNSReply
    freertos_dns.o(i.prvGetHostByName) refers to freertos_ip.o(i.FreeRTOS_ReleaseUDPPayloadBuffer) for FreeRTOS_ReleaseUDPPayloadBuffer
    freertos_dns.o(i.prvGetHostByName) refers to freertos_sockets.o(i.FreeRTOS_closesocket) for FreeRTOS_closesocket
    freertos_dns.o(i.prvGetHostByName) refers to freertos_dns.o(.data) for ulAddressLength
    freertos_dns.o(i.prvParseDNSReply) refers to freertos_dns.o(i.prvSkipNameField) for prvSkipNameField
    freertos_dns.o(i.ulDNSHandlePacket) refers to freertos_dns.o(i.prvParseDNSReply) for prvParseDNSReply
    lpc17xx_emac.o(i.EMAC_CheckPHYStatus) refers to lpc17xx_emac.o(i.read_PHY) for read_PHY
    lpc17xx_emac.o(i.EMAC_CheckReceiveDataStatus) refers to lpc17xx_emac.o(.bss) for Rx_Stat
    lpc17xx_emac.o(i.EMAC_DeInit) refers to lpc17xx_clkpwr.o(i.CLKPWR_ConfigPPWR) for CLKPWR_ConfigPPWR
    lpc17xx_emac.o(i.EMAC_GetReceiveDataSize) refers to lpc17xx_emac.o(.bss) for Rx_Stat
    lpc17xx_emac.o(i.EMAC_Init) refers to lpc17xx_clkpwr.o(i.CLKPWR_ConfigPPWR) for CLKPWR_ConfigPPWR
    lpc17xx_emac.o(i.EMAC_Init) refers to lpc17xx_emac.o(i.write_PHY) for write_PHY
    lpc17xx_emac.o(i.EMAC_Init) refers to lpc17xx_emac.o(i.read_PHY) for read_PHY
    lpc17xx_emac.o(i.EMAC_Init) refers to lpc17xx_emac.o(i.EMAC_SetPHYMode) for EMAC_SetPHYMode
    lpc17xx_emac.o(i.EMAC_Init) refers to lpc17xx_emac.o(i.setEmacAddr) for setEmacAddr
    lpc17xx_emac.o(i.EMAC_Init) refers to lpc17xx_emac.o(i.rx_descr_init) for rx_descr_init
    lpc17xx_emac.o(i.EMAC_Init) refers to lpc17xx_emac.o(i.tx_descr_init) for tx_descr_init
    lpc17xx_emac.o(i.EMAC_Init) refers to system_lpc17xx.o(.data) for SystemCoreClock
    lpc17xx_emac.o(i.EMAC_Init) refers to lpc17xx_emac.o(.constdata) for EMAC_clkdiv
    lpc17xx_emac.o(i.EMAC_ReadPacketBuffer) refers to lpc17xx_emac.o(.bss) for Rx_Desc
    lpc17xx_emac.o(i.EMAC_SetHashFilter) refers to lpc17xx_emac.o(i.emac_CRCCalc) for emac_CRCCalc
    lpc17xx_emac.o(i.EMAC_SetPHYMode) refers to lpc17xx_emac.o(i.read_PHY) for read_PHY
    lpc17xx_emac.o(i.EMAC_SetPHYMode) refers to lpc17xx_emac.o(i.write_PHY) for write_PHY
    lpc17xx_emac.o(i.EMAC_SetPHYMode) refers to lpc17xx_emac.o(i.EMAC_UpdatePHYStatus) for EMAC_UpdatePHYStatus
    lpc17xx_emac.o(i.EMAC_UpdatePHYStatus) refers to lpc17xx_emac.o(i.read_PHY) for read_PHY
    lpc17xx_emac.o(i.EMAC_WritePacketBuffer) refers to lpc17xx_emac.o(.bss) for Tx_Desc
    lpc17xx_emac.o(i.rx_descr_init) refers to lpc17xx_emac.o(.bss) for rx_buf
    lpc17xx_emac.o(i.tx_descr_init) refers to lpc17xx_emac.o(.bss) for tx_buf
    __2sprintf.o(.text) refers to _printf_char_common.o(.text) for _printf_char_common
    __2sprintf.o(.text) refers to _sputc.o(.text) for _sputc
    noretval__2sprintf.o(.text) refers to _printf_char_common.o(.text) for _printf_char_common
    noretval__2sprintf.o(.text) refers to _sputc.o(.text) for _sputc
    __printf.o(.text) refers to _printf_percent.o(.ARM.Collect$$_printf_percent$$00000000) for _printf_percent
    _printf_str.o(.text) refers (Special) to _printf_char.o(.text) for _printf_cs_common
    _printf_dec.o(.text) refers to _printf_intcommon.o(.text) for _printf_int_common
    __printf_flags.o(.text) refers to _printf_percent.o(.ARM.Collect$$_printf_percent$$00000000) for _printf_percent
    __printf_flags.o(.text) refers to __printf_flags.o(.constdata) for .constdata
    __printf_ss.o(.text) refers to _printf_percent.o(.ARM.Collect$$_printf_percent$$00000000) for _printf_percent
    __printf_flags_ss.o(.text) refers to _printf_percent.o(.ARM.Collect$$_printf_percent$$00000000) for _printf_percent
    __printf_flags_ss.o(.text) refers to __printf_flags_ss.o(.constdata) for .constdata
    __printf_wp.o(.text) refers to __printf_wp.o(i._is_digit) for _is_digit
    __printf_wp.o(.text) refers to _printf_percent.o(.ARM.Collect$$_printf_percent$$00000000) for _printf_percent
    __printf_flags_wp.o(.text) refers to __printf_wp.o(i._is_digit) for _is_digit
    __printf_flags_wp.o(.text) refers to _printf_percent.o(.ARM.Collect$$_printf_percent$$00000000) for _printf_percent
    __printf_flags_wp.o(.text) refers to __printf_flags_wp.o(.constdata) for .constdata
    __printf_ss_wp.o(.text) refers to __printf_wp.o(i._is_digit) for _is_digit
    __printf_ss_wp.o(.text) refers to _printf_percent.o(.ARM.Collect$$_printf_percent$$00000000) for _printf_percent
    __printf_flags_ss_wp.o(.text) refers to __printf_wp.o(i._is_digit) for _is_digit
    __printf_flags_ss_wp.o(.text) refers to _printf_percent.o(.ARM.Collect$$_printf_percent$$00000000) for _printf_percent
    __printf_flags_ss_wp.o(.text) refers to __printf_flags_ss_wp.o(.constdata) for .constdata
    _printf_s.o(.ARM.Collect$$_printf_percent$$00000014) refers (Weak) to _printf_char.o(.text) for _printf_string
    _printf_u.o(.ARM.Collect$$_printf_percent$$0000000A) refers (Weak) to _printf_dec.o(.text) for _printf_int_dec
    _printf_percent.o(.ARM.Collect$$_printf_percent$$00000000) refers (Special) to _printf_percent_end.o(.ARM.Collect$$_printf_percent$$00000017) for _printf_percent_end
    rt_memcpy_v6.o(.text) refers to rt_memcpy_w.o(.text) for __aeabi_memcpy4
    rt_memmove_v6.o(.text) refers to rt_memcpy_v6.o(.text) for __aeabi_memcpy
    rt_memmove_v6.o(.text) refers to rt_memmove_w.o(.text) for __memmove_aligned
    aeabi_memset.o(.text) refers to rt_memclr.o(.text) for _memset
    rt_memclr.o(.text) refers to rt_memclr_w.o(.text) for _memset_w
    __main.o(!!!main) refers to __rtentry.o(.ARM.Collect$$rtentry$$00000000) for __rt_entry
    __rtentry.o(.ARM.Collect$$rtentry$$00000000) refers (Special) to __rtentry2.o(.ARM.Collect$$rtentry$$0000000A) for __rt_entry_li
    __rtentry.o(.ARM.Collect$$rtentry$$00000000) refers (Special) to __rtentry2.o(.ARM.Collect$$rtentry$$0000000D) for __rt_entry_main
    __rtentry.o(.ARM.Collect$$rtentry$$00000000) refers (Special) to __rtentry2.o(.ARM.Collect$$rtentry$$0000000C) for __rt_entry_postli_1
    __rtentry.o(.ARM.Collect$$rtentry$$00000000) refers (Special) to __rtentry2.o(.ARM.Collect$$rtentry$$00000009) for __rt_entry_postsh_1
    __rtentry.o(.ARM.Collect$$rtentry$$00000000) refers (Special) to __rtentry2.o(.ARM.Collect$$rtentry$$00000002) for __rt_entry_presh_1
    __rtentry.o(.ARM.Collect$$rtentry$$00000000) refers (Special) to __rtentry4.o(.ARM.Collect$$rtentry$$00000004) for __rt_entry_sh
    aeabi_ldiv0_sigfpe.o(.text) refers to rt_div0.o(.text) for __rt_div0
    _printf_char_common.o(.text) refers to __printf.o(.text) for __printf
    _printf_char.o(.text) refers (Weak) to _printf_str.o(.text) for _printf_str
    rt_memmove_w.o(.text) refers to rt_memcpy_w.o(.text) for __aeabi_memcpy4
    __rtentry2.o(.ARM.Collect$$rtentry$$00000008) refers to boardinit2.o(.text) for _platform_post_stackheap_init
    __rtentry2.o(.ARM.Collect$$rtentry$$0000000A) refers to libinit.o(.ARM.Collect$$libinit$$00000000) for __rt_lib_init
    __rtentry2.o(.ARM.Collect$$rtentry$$0000000B) refers to boardinit3.o(.text) for _platform_post_lib_init
    __rtentry2.o(.ARM.Collect$$rtentry$$0000000D) refers to main.o(i.main) for main
    __rtentry2.o(.ARM.Collect$$rtentry$$0000000D) refers to exit.o(.text) for exit
    __rtentry2.o(.ARM.exidx) refers to __rtentry2.o(.ARM.Collect$$rtentry$$00000001) for .ARM.Collect$$rtentry$$00000001
    __rtentry2.o(.ARM.exidx) refers to __rtentry2.o(.ARM.Collect$$rtentry$$00000008) for .ARM.Collect$$rtentry$$00000008
    __rtentry2.o(.ARM.exidx) refers to __rtentry2.o(.ARM.Collect$$rtentry$$0000000A) for .ARM.Collect$$rtentry$$0000000A
    __rtentry2.o(.ARM.exidx) refers to __rtentry2.o(.ARM.Collect$$rtentry$$0000000B) for .ARM.Collect$$rtentry$$0000000B
    __rtentry2.o(.ARM.exidx) refers to __rtentry2.o(.ARM.Collect$$rtentry$$0000000D) for .ARM.Collect$$rtentry$$0000000D
    __rtentry4.o(.ARM.Collect$$rtentry$$00000004) refers to sys_stackheap_outer.o(.text) for __user_setup_stackheap
    __rtentry4.o(.ARM.exidx) refers to __rtentry4.o(.ARM.Collect$$rtentry$$00000004) for .ARM.Collect$$rtentry$$00000004
    rt_div0.o(.text) refers to defsig_fpe_outer.o(.text) for __rt_SIGFPE
    sys_stackheap_outer.o(.text) refers to libspace.o(.text) for __user_perproc_libspace
    sys_stackheap_outer.o(.text) refers to startup_mps_cm3.o(.text) for __user_initial_stackheap
    exit.o(.text) refers to rtexit.o(.ARM.Collect$$rtexit$$00000000) for __rt_exit
    defsig_fpe_outer.o(.text) refers to defsig_fpe_inner.o(.text) for __rt_SIGFPE_inner
    defsig_fpe_outer.o(.text) refers to defsig_exit.o(.text) for __sig_exit
    defsig_fpe_formal.o(.text) refers to rt_raise.o(.text) for __rt_raise
    libinit.o(.ARM.Collect$$libinit$$00000000) refers (Special) to libinit2.o(.ARM.Collect$$libinit$$0000002E) for __rt_lib_init_alloca_1
    libinit.o(.ARM.Collect$$libinit$$00000000) refers (Special) to libinit2.o(.ARM.Collect$$libinit$$0000002C) for __rt_lib_init_argv_1
    libinit.o(.ARM.Collect$$libinit$$00000000) refers (Special) to libinit2.o(.ARM.Collect$$libinit$$0000001B) for __rt_lib_init_atexit_1
    libinit.o(.ARM.Collect$$libinit$$00000000) refers (Special) to libinit2.o(.ARM.Collect$$libinit$$00000021) for __rt_lib_init_clock_1
    libinit.o(.ARM.Collect$$libinit$$00000000) refers (Special) to libinit2.o(.ARM.Collect$$libinit$$00000032) for __rt_lib_init_cpp_1
    libinit.o(.ARM.Collect$$libinit$$00000000) refers (Special) to libinit2.o(.ARM.Collect$$libinit$$00000030) for __rt_lib_init_exceptions_1
    libinit.o(.ARM.Collect$$libinit$$00000000) refers (Special) to libinit2.o(.ARM.Collect$$libinit$$00000002) for __rt_lib_init_fp_1
    libinit.o(.ARM.Collect$$libinit$$00000000) refers (Special) to libinit2.o(.ARM.Collect$$libinit$$0000001F) for __rt_lib_init_fp_trap_1
    libinit.o(.ARM.Collect$$libinit$$00000000) refers (Special) to libinit2.o(.ARM.Collect$$libinit$$00000023) for __rt_lib_init_getenv_1
    libinit.o(.ARM.Collect$$libinit$$00000000) refers (Special) to libinit2.o(.ARM.Collect$$libinit$$0000000A) for __rt_lib_init_heap_1
    libinit.o(.ARM.Collect$$libinit$$00000000) refers (Special) to libinit2.o(.ARM.Collect$$libinit$$00000011) for __rt_lib_init_lc_collate_1
    libinit.o(.ARM.Collect$$libinit$$00000000) refers (Special) to libinit2.o(.ARM.Collect$$libinit$$00000013) for __rt_lib_init_lc_ctype_1
    libinit.o(.ARM.Collect$$libinit$$00000000) refers (Special) to libinit2.o(.ARM.Collect$$libinit$$00000015) for __rt_lib_init_lc_monetary_1
    libinit.o(.ARM.Collect$$libinit$$00000000) refers (Special) to libinit2.o(.ARM.Collect$$libinit$$00000017) for __rt_lib_init_lc_numeric_1
    libinit.o(.ARM.Collect$$libinit$$00000000) refers (Special) to libinit2.o(.ARM.Collect$$libinit$$00000019) for __rt_lib_init_lc_time_1
    libinit.o(.ARM.Collect$$libinit$$00000000) refers (Special) to libinit2.o(.ARM.Collect$$libinit$$00000004) for __rt_lib_init_preinit_1
    libinit.o(.ARM.Collect$$libinit$$00000000) refers (Special) to libinit2.o(.ARM.Collect$$libinit$$0000000E) for __rt_lib_init_rand_1
    libinit.o(.ARM.Collect$$libinit$$00000000) refers (Special) to libinit2.o(.ARM.Collect$$libinit$$00000033) for __rt_lib_init_return
    libinit.o(.ARM.Collect$$libinit$$00000000) refers (Special) to libinit2.o(.ARM.Collect$$libinit$$0000001D) for __rt_lib_init_signal_1
    libinit.o(.ARM.Collect$$libinit$$00000000) refers (Special) to libinit2.o(.ARM.Collect$$libinit$$00000025) for __rt_lib_init_stdio_1
    libinit.o(.ARM.Collect$$libinit$$00000000) refers (Special) to libinit2.o(.ARM.Collect$$libinit$$0000000C) for __rt_lib_init_user_alloc_1
    libspace.o(.text) refers to libspace.o(.bss) for __libspace_start
    rtexit.o(.ARM.Collect$$rtexit$$00000000) refers (Special) to rtexit2.o(.ARM.Collect$$rtexit$$00000004) for __rt_exit_exit
    rtexit.o(.ARM.Collect$$rtexit$$00000000) refers (Special) to rtexit2.o(.ARM.Collect$$rtexit$$00000003) for __rt_exit_ls
    rtexit.o(.ARM.Collect$$rtexit$$00000000) refers (Special) to rtexit2.o(.ARM.Collect$$rtexit$$00000002) for __rt_exit_prels_1
    rtexit.o(.ARM.exidx) refers (Special) to rtexit2.o(.ARM.Collect$$rtexit$$00000004) for __rt_exit_exit
    rtexit.o(.ARM.exidx) refers (Special) to rtexit2.o(.ARM.Collect$$rtexit$$00000003) for __rt_exit_ls
    rtexit.o(.ARM.exidx) refers (Special) to rtexit2.o(.ARM.Collect$$rtexit$$00000002) for __rt_exit_prels_1
    rtexit.o(.ARM.exidx) refers to rtexit.o(.ARM.Collect$$rtexit$$00000000) for .ARM.Collect$$rtexit$$00000000
    rt_raise.o(.text) refers to __raise.o(.text) for __raise
    rt_raise.o(.text) refers to sys_exit.o(.text) for _sys_exit
    defsig_exit.o(.text) refers to sys_exit.o(.text) for _sys_exit
    defsig_fpe_inner.o(.text) refers to defsig_general.o(.text) for __default_signal_display
    libinit2.o(.ARM.Collect$$libinit$$00000010) refers to libinit2.o(.ARM.Collect$$libinit$$0000000F) for .ARM.Collect$$libinit$$0000000F
    libinit2.o(.ARM.Collect$$libinit$$00000012) refers to libinit2.o(.ARM.Collect$$libinit$$0000000F) for .ARM.Collect$$libinit$$0000000F
    libinit2.o(.ARM.Collect$$libinit$$00000014) refers to libinit2.o(.ARM.Collect$$libinit$$0000000F) for .ARM.Collect$$libinit$$0000000F
    libinit2.o(.ARM.Collect$$libinit$$00000016) refers to libinit2.o(.ARM.Collect$$libinit$$0000000F) for .ARM.Collect$$libinit$$0000000F
    libinit2.o(.ARM.Collect$$libinit$$00000018) refers to libinit2.o(.ARM.Collect$$libinit$$0000000F) for .ARM.Collect$$libinit$$0000000F
    libinit2.o(.ARM.Collect$$libinit$$00000026) refers to argv_veneer.o(.emb_text) for __ARM_argv_veneer
    libinit2.o(.ARM.Collect$$libinit$$00000027) refers to argv_veneer.o(.emb_text) for __ARM_argv_veneer
    sys_exit.o(.text) refers (Special) to use_no_semi.o(.text) for __I$use$semihosting
    sys_exit.o(.text) refers (Special) to indicate_semi.o(.text) for __semihosting_library_function
    rtexit2.o(.ARM.Collect$$rtexit$$00000003) refers to libshutdown.o(.ARM.Collect$$libshutdown$$00000000) for __rt_lib_shutdown
    rtexit2.o(.ARM.Collect$$rtexit$$00000004) refers to sys_exit.o(.text) for _sys_exit
    rtexit2.o(.ARM.exidx) refers to rtexit2.o(.ARM.Collect$$rtexit$$00000001) for .ARM.Collect$$rtexit$$00000001
    rtexit2.o(.ARM.exidx) refers to rtexit2.o(.ARM.Collect$$rtexit$$00000003) for .ARM.Collect$$rtexit$$00000003
    rtexit2.o(.ARM.exidx) refers to rtexit2.o(.ARM.Collect$$rtexit$$00000004) for .ARM.Collect$$rtexit$$00000004
    __raise.o(.text) refers to defsig.o(CL$$defsig) for __default_signal_handler
    defsig_general.o(.text) refers to sys_wrch.o(.text) for _ttywrch
    argv_veneer.o(.emb_text) refers to no_argv.o(.text) for __ARM_get_argv
    sys_wrch.o(.text) refers (Special) to use_no_semi.o(.text) for __I$use$semihosting
    sys_wrch.o(.text) refers (Special) to indicate_semi.o(.text) for __semihosting_library_function
    defsig.o(CL$$defsig) refers to defsig_fpe_inner.o(.text) for __rt_SIGFPE_inner
    defsig.o(CL$$defsig) refers to defsig_rtmem_inner.o(.text) for __rt_SIGRTMEM_inner
    _get_argv_nomalloc.o(.text) refers (Special) to hrguard.o(.text) for __heap_region$guard
    _get_argv_nomalloc.o(.text) refers to defsig_rtmem_outer.o(.text) for __rt_SIGRTMEM
    _get_argv_nomalloc.o(.text) refers to sys_command.o(.text) for _sys_command_string
    libshutdown.o(.ARM.Collect$$libshutdown$$00000000) refers (Special) to libshutdown2.o(.ARM.Collect$$libshutdown$$00000002) for __rt_lib_shutdown_cpp_1
    libshutdown.o(.ARM.Collect$$libshutdown$$00000000) refers (Special) to libshutdown2.o(.ARM.Collect$$libshutdown$$00000007) for __rt_lib_shutdown_fp_trap_1
    libshutdown.o(.ARM.Collect$$libshutdown$$00000000) refers (Special) to libshutdown2.o(.ARM.Collect$$libshutdown$$0000000F) for __rt_lib_shutdown_heap_1
    libshutdown.o(.ARM.Collect$$libshutdown$$00000000) refers (Special) to libshutdown2.o(.ARM.Collect$$libshutdown$$00000010) for __rt_lib_shutdown_return
    libshutdown.o(.ARM.Collect$$libshutdown$$00000000) refers (Special) to libshutdown2.o(.ARM.Collect$$libshutdown$$0000000A) for __rt_lib_shutdown_signal_1
    libshutdown.o(.ARM.Collect$$libshutdown$$00000000) refers (Special) to libshutdown2.o(.ARM.Collect$$libshutdown$$00000004) for __rt_lib_shutdown_stdio_1
    libshutdown.o(.ARM.Collect$$libshutdown$$00000000) refers (Special) to libshutdown2.o(.ARM.Collect$$libshutdown$$0000000C) for __rt_lib_shutdown_user_alloc_1
    sys_command.o(.text) refers (Special) to use_no_semi.o(.text) for __I$use$semihosting
    sys_command.o(.text) refers (Special) to indicate_semi.o(.text) for __semihosting_library_function
    defsig_abrt_inner.o(.text) refers to defsig_general.o(.text) for __default_signal_display
    defsig_rtred_inner.o(.text) refers to defsig_general.o(.text) for __default_signal_display
    defsig_rtmem_inner.o(.text) refers to defsig_general.o(.text) for __default_signal_display
    defsig_rtmem_outer.o(.text) refers to defsig_rtmem_inner.o(.text) for __rt_SIGRTMEM_inner
    defsig_rtmem_outer.o(.text) refers to defsig_exit.o(.text) for __sig_exit
    defsig_rtmem_formal.o(.text) refers to rt_raise.o(.text) for __rt_raise
    defsig_stak_inner.o(.text) refers to defsig_general.o(.text) for __default_signal_display
    defsig_pvfn_inner.o(.text) refers to defsig_general.o(.text) for __default_signal_display
    defsig_cppl_inner.o(.text) refers to defsig_general.o(.text) for __default_signal_display
    defsig_segv_inner.o(.text) refers to defsig_general.o(.text) for __default_signal_display
    defsig_other.o(.text) refers to defsig_general.o(.text) for __default_signal_display


==============================================================================

Removing Unused input sections from the image.

    Removing main.o(.rev16_text), (4 bytes).
    Removing main.o(.revsh_text), (4 bytes).
    Removing main.o(i.vAssertCalled), (64 bytes).
    Removing system_lpc17xx.o(.rev16_text), (4 bytes).
    Removing system_lpc17xx.o(.revsh_text), (4 bytes).
    Removing port.o(i.vPortEndScheduler), (2 bytes).
    Removing queue.o(i.uxQueueMessagesWaitingFromISR), (4 bytes).
    Removing queue.o(i.uxQueueSpacesAvailable), (22 bytes).
    Removing queue.o(i.xQueueCreateCountingSemaphoreStatic), (26 bytes).
    Removing queue.o(i.xQueueCreateMutexStatic), (40 bytes).
    Removing queue.o(i.xQueueGenericReset), (116 bytes).
    Removing queue.o(i.xQueueGiveMutexRecursive), (42 bytes).
    Removing queue.o(i.xQueueIsQueueEmptyFromISR), (12 bytes).
    Removing queue.o(i.xQueueIsQueueFullFromISR), (14 bytes).
    Removing queue.o(i.xQueuePeek), (276 bytes).
    Removing queue.o(i.xQueuePeekFromISR), (64 bytes).
    Removing queue.o(i.xQueueReceiveFromISR), (124 bytes).
    Removing queue.o(i.xQueueTakeMutexRecursive), (48 bytes).
    Removing tasks.o(i.pcTaskGetName), (16 bytes).
    Removing tasks.o(i.ulTaskNotifyValueClear), (44 bytes).
    Removing tasks.o(i.uxTaskGetNumberOfTasks), (12 bytes).
    Removing tasks.o(i.uxTaskGetStackHighWaterMark), (40 bytes).
    Removing tasks.o(i.vTaskDelayUntil), (88 bytes).
    Removing tasks.o(i.vTaskDelete), (208 bytes).
    Removing tasks.o(i.vTaskEndScheduler), (28 bytes).
    Removing tasks.o(i.vTaskNotifyGiveFromISR), (144 bytes).
    Removing tasks.o(i.vTaskResume), (124 bytes).
    Removing tasks.o(i.xTaskCatchUpTicks), (24 bytes).
    Removing tasks.o(i.xTaskGenericNotifyFromISR), (196 bytes).
    Removing tasks.o(i.xTaskGetTickCountFromISR), (12 bytes).
    Removing tasks.o(i.xTaskNotifyStateClear), (48 bytes).
    Removing tasks.o(i.xTaskNotifyWait), (144 bytes).
    Removing tasks.o(i.xTaskResumeFromISR), (136 bytes).
    Removing timers.o(i.pcTimerGetName), (4 bytes).
    Removing timers.o(i.pvTimerGetTimerID), (18 bytes).
    Removing timers.o(i.uxTimerGetReloadMode), (30 bytes).
    Removing timers.o(i.vTimerSetReloadMode), (38 bytes).
    Removing timers.o(i.vTimerSetTimerID), (20 bytes).
    Removing timers.o(i.xTimerCreateStatic), (136 bytes).
    Removing timers.o(i.xTimerGetExpiryTime), (4 bytes).
    Removing timers.o(i.xTimerGetPeriod), (4 bytes).
    Removing timers.o(i.xTimerGetTimerDaemonTaskHandle), (12 bytes).
    Removing timers.o(i.xTimerIsTimerActive), (30 bytes).
    Removing lpc17xx_adc.o(.rev16_text), (4 bytes).
    Removing lpc17xx_adc.o(.revsh_text), (4 bytes).
    Removing lpc17xx_adc.o(i.ADC_BurstCmd), (84 bytes).
    Removing lpc17xx_adc.o(i.ADC_DeInit), (80 bytes).
    Removing lpc17xx_adc.o(i.ADC_EdgeStartConfig), (104 bytes).
    Removing lpc17xx_adc.o(i.ADC_GetData), (18 bytes).
    Removing lpc17xx_adc.o(i.ADC_GlobalGetData), (64 bytes).
    Removing lpc17xx_adc.o(i.ADC_GlobalGetStatus), (108 bytes).
    Removing lpc17xx_adc.o(i.ADC_IntConfig), (132 bytes).
    Removing lpc17xx_adc.o(i.ADC_PowerdownCmd), (84 bytes).
    Removing lpc17xx_gpio.o(.rev16_text), (4 bytes).
    Removing lpc17xx_gpio.o(.revsh_text), (4 bytes).
    Removing lpc17xx_gpio.o(i.FIO_ByteClearValue), (64 bytes).
    Removing lpc17xx_gpio.o(i.FIO_ByteReadValue), (68 bytes).
    Removing lpc17xx_gpio.o(i.FIO_ByteSetDir), (84 bytes).
    Removing lpc17xx_gpio.o(i.FIO_ByteSetMask), (88 bytes).
    Removing lpc17xx_gpio.o(i.FIO_ByteSetValue), (64 bytes).
    Removing lpc17xx_gpio.o(i.FIO_ClearInt), (28 bytes).
    Removing lpc17xx_gpio.o(i.FIO_ClearValue), (60 bytes).
    Removing lpc17xx_gpio.o(i.FIO_GetIntStatus), (84 bytes).
    Removing lpc17xx_gpio.o(i.FIO_HalfWordClearValue), (64 bytes).
    Removing lpc17xx_gpio.o(i.FIO_HalfWordReadValue), (68 bytes).
    Removing lpc17xx_gpio.o(i.FIO_HalfWordSetDir), (92 bytes).
    Removing lpc17xx_gpio.o(i.FIO_HalfWordSetMask), (92 bytes).
    Removing lpc17xx_gpio.o(i.FIO_HalfWordSetValue), (64 bytes).
    Removing lpc17xx_gpio.o(i.FIO_IntCmd), (60 bytes).
    Removing lpc17xx_gpio.o(i.FIO_ReadValue), (60 bytes).
    Removing lpc17xx_gpio.o(i.FIO_SetDir), (72 bytes).
    Removing lpc17xx_gpio.o(i.FIO_SetMask), (72 bytes).
    Removing lpc17xx_gpio.o(i.FIO_SetValue), (60 bytes).
    Removing lpc17xx_gpio.o(i.GPIO_ClearInt), (28 bytes).
    Removing lpc17xx_gpio.o(i.GPIO_GetIntStatus), (84 bytes).
    Removing lpc17xx_gpio.o(i.GPIO_IntCmd), (60 bytes).
    Removing lpc17xx_pinsel.o(.rev16_text), (4 bytes).
    Removing lpc17xx_pinsel.o(.revsh_text), (4 bytes).
    Removing lpc17xx_pinsel.o(i.PINSEL_ConfigTraceFunc), (36 bytes).
    Removing lpc17xx_pinsel.o(i.PINSEL_SetI2C0Pins), (24 bytes).
    Removing lpc17xx_uart.o(.rev16_text), (4 bytes).
    Removing lpc17xx_uart.o(.revsh_text), (4 bytes).
    Removing lpc17xx_uart.o(i.UART_ABClearIntPending), (100 bytes).
    Removing lpc17xx_uart.o(i.UART_ABCmd), (232 bytes).
    Removing lpc17xx_uart.o(i.UART_CheckBusy), (14 bytes).
    Removing lpc17xx_uart.o(i.UART_DeInit), (216 bytes).
    Removing lpc17xx_uart.o(i.UART_FIFOConfig), (240 bytes).
    Removing lpc17xx_uart.o(i.UART_ForceBreak), (100 bytes).
    Removing lpc17xx_uart.o(i.UART_FullModemConfigMode), (148 bytes).
    Removing lpc17xx_uart.o(i.UART_FullModemForcePinState), (140 bytes).
    Removing lpc17xx_uart.o(i.UART_FullModemGetStatus), (64 bytes).
    Removing lpc17xx_uart.o(i.UART_GetIntId), (100 bytes).
    Removing lpc17xx_uart.o(i.UART_GetLineStatus), (100 bytes).
    Removing lpc17xx_uart.o(i.UART_IntConfig), (276 bytes).
    Removing lpc17xx_uart.o(i.UART_IrDACmd), (104 bytes).
    Removing lpc17xx_uart.o(i.UART_IrDAInvtInputCmd), (112 bytes).
    Removing lpc17xx_uart.o(i.UART_IrDAPulseDivConfig), (132 bytes).
    Removing lpc17xx_uart.o(i.UART_RS485Config), (304 bytes).
    Removing lpc17xx_uart.o(i.UART_RS485ReceiverCmd), (22 bytes).
    Removing lpc17xx_uart.o(i.UART_RS485Send), (56 bytes).
    Removing lpc17xx_uart.o(i.UART_RS485SendData), (24 bytes).
    Removing lpc17xx_uart.o(i.UART_RS485SendSlvAddr), (38 bytes).
    Removing lpc17xx_uart.o(i.UART_Receive), (200 bytes).
    Removing lpc17xx_uart.o(i.UART_ReceiveByte), (64 bytes).
    Removing lpc17xx_uart.o(i.UART_SendByte), (64 bytes).
    Removing freertos_ip.o(i.FreeRTOS_GetAddressConfiguration), (44 bytes).
    Removing freertos_ip.o(i.FreeRTOS_GetDNSServerAddress), (12 bytes).
    Removing freertos_ip.o(i.FreeRTOS_GetGatewayAddress), (12 bytes).
    Removing freertos_ip.o(i.FreeRTOS_GetIPAddress), (12 bytes).
    Removing freertos_ip.o(i.FreeRTOS_GetMACAddress), (8 bytes).
    Removing freertos_ip.o(i.FreeRTOS_GetNetmask), (12 bytes).
    Removing freertos_ip.o(i.FreeRTOS_GetUDPPayloadBuffer), (44 bytes).
    Removing freertos_ip.o(i.FreeRTOS_IsNetworkUp), (12 bytes).
    Removing freertos_ip.o(i.FreeRTOS_NetworkDownFromISR), (56 bytes).
    Removing freertos_ip.o(i.FreeRTOS_ReleaseUDPPayloadBuffer), (18 bytes).
    Removing freertos_ip.o(i.FreeRTOS_SetAddressConfiguration), (44 bytes).
    Removing freertos_ip.o(i.FreeRTOS_SetGatewayAddress), (12 bytes).
    Removing freertos_ip.o(i.FreeRTOS_SetIPAddress), (12 bytes).
    Removing freertos_ip.o(i.FreeRTOS_SetNetmask), (12 bytes).
    Removing freertos_ip.o(i.pxDuplicateNetworkBufferWithDescriptor), (44 bytes).
    Removing freertos_sockets.o(i.FreeRTOS_GetLocalAddress), (36 bytes).
    Removing freertos_sockets.o(i.FreeRTOS_GetRemoteAddress), (74 bytes).
    Removing freertos_sockets.o(i.FreeRTOS_accept), (278 bytes).
    Removing freertos_sockets.o(i.FreeRTOS_connect), (126 bytes).
    Removing freertos_sockets.o(i.FreeRTOS_connstatus), (24 bytes).
    Removing freertos_sockets.o(i.FreeRTOS_get_rx_buf), (8 bytes).
    Removing freertos_sockets.o(i.FreeRTOS_get_tx_head), (66 bytes).
    Removing freertos_sockets.o(i.FreeRTOS_inet_addr), (142 bytes).
    Removing freertos_sockets.o(i.FreeRTOS_issocketconnected), (40 bytes).
    Removing freertos_sockets.o(i.FreeRTOS_listen), (146 bytes).
    Removing freertos_sockets.o(i.FreeRTOS_maywrite), (74 bytes).
    Removing freertos_sockets.o(i.FreeRTOS_mss), (22 bytes).
    Removing freertos_sockets.o(i.FreeRTOS_netstat), (24 bytes).
    Removing freertos_sockets.o(i.FreeRTOS_recv), (324 bytes).
    Removing freertos_sockets.o(i.FreeRTOS_recvcount), (40 bytes).
    Removing freertos_sockets.o(i.FreeRTOS_rx_size), (40 bytes).
    Removing freertos_sockets.o(i.FreeRTOS_send), (272 bytes).
    Removing freertos_sockets.o(i.FreeRTOS_shutdown), (70 bytes).
    Removing freertos_sockets.o(i.FreeRTOS_tx_size), (40 bytes).
    Removing freertos_sockets.o(i.FreeRTOS_tx_space), (40 bytes).
    Removing freertos_sockets.o(i.bMayConnect), (36 bytes).
    Removing freertos_sockets.o(i.lStreamBufferGetSpace), (16 bytes).
    Removing freertos_sockets.o(i.prvTCPConnectStart), (170 bytes).
    Removing freertos_sockets.o(i.prvTCPSendCheck), (94 bytes).
    Removing freertos_sockets.o(i.vStreamBufferClear), (12 bytes).
    Removing event_groups.o(i.vEventGroupClearBitsCallback), (24 bytes).
    Removing event_groups.o(i.vEventGroupSetBitsCallback), (106 bytes).
    Removing event_groups.o(i.xEventGroupClearBits), (26 bytes).
    Removing event_groups.o(i.xEventGroupCreateStatic), (24 bytes).
    Removing event_groups.o(i.xEventGroupGetBitsFromISR), (26 bytes).
    Removing event_groups.o(i.xEventGroupSync), (236 bytes).
    Removing heap_4.o(i.vPortGetHeapStats), (120 bytes).
    Removing heap_4.o(i.vPortInitialiseBlocks), (2 bytes).
    Removing heap_4.o(i.xPortGetFreeHeapSize), (12 bytes).
    Removing heap_4.o(i.xPortGetMinimumEverFreeHeapSize), (12 bytes).
    Removing lpc17xx_clkpwr.o(.rev16_text), (4 bytes).
    Removing lpc17xx_clkpwr.o(.revsh_text), (4 bytes).
    Removing lpc17xx_clkpwr.o(i.CLKPWR_DeepPowerDown), (28 bytes).
    Removing lpc17xx_clkpwr.o(i.CLKPWR_DeepSleep), (28 bytes).
    Removing lpc17xx_clkpwr.o(i.CLKPWR_GetPCLKSEL), (32 bytes).
    Removing lpc17xx_clkpwr.o(i.CLKPWR_PowerDown), (28 bytes).
    Removing lpc17xx_clkpwr.o(i.CLKPWR_SetPCLKDiv), (84 bytes).
    Removing lpc17xx_clkpwr.o(i.CLKPWR_Sleep), (16 bytes).
    Removing freertos_arp.o(i.FreeRTOS_ClearARP), (16 bytes).
    Removing freertos_arp.o(i.vARPSendGratuitous), (20 bytes).
    Removing freertos_tcp_win.o(i.vListInsertGeneric), (22 bytes).
    Removing freertos_tcp_win.o(i.vTCPWindowDestroy), (2 bytes).
    Removing bufferallocation_2.o(i.pucGetNetworkBuffer), (34 bytes).
    Removing bufferallocation_2.o(i.uxGetMinimumFreeNetworkBuffers), (12 bytes).
    Removing bufferallocation_2.o(i.uxGetNumberOfFreeNetworkBuffers), (12 bytes).
    Removing networkhal.o(.rev16_text), (4 bytes).
    Removing networkhal.o(.revsh_text), (4 bytes).
    Removing freertos_dns.o(i.FreeRTOS_gethostbyname), (48 bytes).
    Removing freertos_dns.o(i.prvCreateDNSMessage), (124 bytes).
    Removing freertos_dns.o(i.prvCreateDNSSocket), (108 bytes).
    Removing freertos_dns.o(i.prvGetHostByName), (236 bytes).
    Removing freertos_dns.o(.constdata), (12 bytes).
    Removing freertos_dns.o(.data), (12 bytes).
    Removing lpc17xx_emac.o(.rev16_text), (4 bytes).
    Removing lpc17xx_emac.o(.revsh_text), (4 bytes).
    Removing lpc17xx_emac.o(i.EMAC_CheckPHYStatus), (74 bytes).
    Removing lpc17xx_emac.o(i.EMAC_DeInit), (32 bytes).
    Removing lpc17xx_emac.o(i.EMAC_GetWoLStatus), (28 bytes).
    Removing lpc17xx_emac.o(i.EMAC_IntCmd), (32 bytes).
    Removing lpc17xx_emac.o(i.EMAC_IntGetStatus), (28 bytes).
    Removing lpc17xx_emac.o(i.EMAC_SetFilterMode), (40 bytes).
    Removing lpc17xx_emac.o(i.EMAC_SetHashFilter), (104 bytes).
    Removing lpc17xx_emac.o(i.emac_CRCCalc), (176 bytes).

188 unused section(s) (total 12030 bytes) removed from the image.

==============================================================================

Image Symbol Table

    Local Symbols

    Symbol Name                              Value     Ov Type        Size  Object(Section)

    RESET                                    0x00000000   Section      204  startup_mps_cm3.o(RESET)
    ../clib/angel/boardlib.s                 0x00000000   Number         0  boardshut.o ABSOLUTE
    ../clib/angel/boardlib.s                 0x00000000   Number         0  boardinit1.o ABSOLUTE
    ../clib/angel/boardlib.s                 0x00000000   Number         0  boardinit3.o ABSOLUTE
    ../clib/angel/boardlib.s                 0x00000000   Number         0  boardinit2.o ABSOLUTE
    ../clib/angel/handlers.s                 0x00000000   Number         0  __scatter_zi.o ABSOLUTE
    ../clib/angel/handlers.s                 0x00000000   Number         0  __scatter_copy.o ABSOLUTE
    ../clib/angel/kernel.s                   0x00000000   Number         0  rtexit.o ABSOLUTE
    ../clib/angel/kernel.s                   0x00000000   Number         0  rtexit2.o ABSOLUTE
    ../clib/angel/kernel.s                   0x00000000   Number         0  __rtentry.o ABSOLUTE
    ../clib/angel/kernel.s                   0x00000000   Number         0  __rtentry2.o ABSOLUTE
    ../clib/angel/kernel.s                   0x00000000   Number         0  __rtentry4.o ABSOLUTE
    ../clib/angel/rt.s                       0x00000000   Number         0  rt_div0.o ABSOLUTE
    ../clib/angel/rt.s                       0x00000000   Number         0  aeabi_ldiv0_sigfpe.o ABSOLUTE
    ../clib/angel/rt.s                       0x00000000   Number         0  aeabi_ldiv0.o ABSOLUTE
    ../clib/angel/rt.s                       0x00000000   Number         0  rt_raise.o ABSOLUTE
    ../clib/angel/scatter.s                  0x00000000   Number         0  __scatter.o ABSOLUTE
    ../clib/angel/startup.s                  0x00000000   Number         0  __main.o ABSOLUTE
    ../clib/angel/sys.s                      0x00000000   Number         0  libspace.o ABSOLUTE
    ../clib/angel/sys.s                      0x00000000   Number         0  indicate_semi.o ABSOLUTE
    ../clib/angel/sys.s                      0x00000000   Number         0  sys_stackheap_outer.o ABSOLUTE
    ../clib/angel/sys.s                      0x00000000   Number         0  use_no_semi.o ABSOLUTE
    ../clib/angel/sysapp.c                   0x00000000   Number         0  sys_wrch.o ABSOLUTE
    ../clib/angel/sysapp.c                   0x00000000   Number         0  sys_exit.o ABSOLUTE
    ../clib/angel/sysapp.c                   0x00000000   Number         0  sys_command.o ABSOLUTE
    ../clib/armsys.c                         0x00000000   Number         0  argv_veneer.o ABSOLUTE
    ../clib/armsys.c                         0x00000000   Number         0  argv_veneer.o ABSOLUTE
    ../clib/armsys.c                         0x00000000   Number         0  _get_argv_nomalloc.o ABSOLUTE
    ../clib/armsys.c                         0x00000000   Number         0  no_argv.o ABSOLUTE
    ../clib/heapalloc.c                      0x00000000   Number         0  hrguard.o ABSOLUTE
    ../clib/heapaux.c                        0x00000000   Number         0  heapauxi.o ABSOLUTE
    ../clib/libinit.s                        0x00000000   Number         0  libinit2.o ABSOLUTE
    ../clib/libinit.s                        0x00000000   Number         0  libshutdown2.o ABSOLUTE
    ../clib/libinit.s                        0x00000000   Number         0  libinit.o ABSOLUTE
    ../clib/libinit.s                        0x00000000   Number         0  libshutdown.o ABSOLUTE
    ../clib/longlong.s                       0x00000000   Number         0  lludivv7m.o ABSOLUTE
    ../clib/memcpset.s                       0x00000000   Number         0  rt_memcpy_w.o ABSOLUTE
    ../clib/memcpset.s                       0x00000000   Number         0  rt_memcpy_v6.o ABSOLUTE
    ../clib/memcpset.s                       0x00000000   Number         0  rt_memmove_v6.o ABSOLUTE
    ../clib/memcpset.s                       0x00000000   Number         0  rt_memmove_w.o ABSOLUTE
    ../clib/memcpset.s                       0x00000000   Number         0  aeabi_memset.o ABSOLUTE
    ../clib/memcpset.s                       0x00000000   Number         0  rt_memclr.o ABSOLUTE
    ../clib/memcpset.s                       0x00000000   Number         0  rt_memclr_w.o ABSOLUTE
    ../clib/printf.c                         0x00000000   Number         0  __printf_flags_wp.o ABSOLUTE
    ../clib/printf.c                         0x00000000   Number         0  __printf_wp.o ABSOLUTE
    ../clib/printf.c                         0x00000000   Number         0  __printf_flags_ss.o ABSOLUTE
    ../clib/printf.c                         0x00000000   Number         0  __printf_ss.o ABSOLUTE
    ../clib/printf.c                         0x00000000   Number         0  _printf_dec.o ABSOLUTE
    ../clib/printf.c                         0x00000000   Number         0  _printf_str.o ABSOLUTE
    ../clib/printf.c                         0x00000000   Number         0  __printf.o ABSOLUTE
    ../clib/printf.c                         0x00000000   Number         0  __2sprintf.o ABSOLUTE
    ../clib/printf.c                         0x00000000   Number         0  _printf_char_common.o ABSOLUTE
    ../clib/printf.c                         0x00000000   Number         0  _sputc.o ABSOLUTE
    ../clib/printf.c                         0x00000000   Number         0  _printf_char.o ABSOLUTE
    ../clib/printf.c                         0x00000000   Number         0  noretval__2sprintf.o ABSOLUTE
    ../clib/printf.c                         0x00000000   Number         0  _printf_intcommon.o ABSOLUTE
    ../clib/printf.c                         0x00000000   Number         0  __printf_nopercent.o ABSOLUTE
    ../clib/printf.c                         0x00000000   Number         0  __printf_flags_ss_wp.o ABSOLUTE
    ../clib/printf.c                         0x00000000   Number         0  __printf_flags.o ABSOLUTE
    ../clib/printf.c                         0x00000000   Number         0  __printf_ss_wp.o ABSOLUTE
    ../clib/printf_percent.s                 0x00000000   Number         0  _printf_s.o ABSOLUTE
    ../clib/printf_percent.s                 0x00000000   Number         0  _printf_percent_end.o ABSOLUTE
    ../clib/printf_percent.s                 0x00000000   Number         0  _printf_u.o ABSOLUTE
    ../clib/printf_percent.s                 0x00000000   Number         0  _printf_percent.o ABSOLUTE
    ../clib/signal.c                         0x00000000   Number         0  __raise.o ABSOLUTE
    ../clib/signal.c                         0x00000000   Number         0  defsig_segv_inner.o ABSOLUTE
    ../clib/signal.c                         0x00000000   Number         0  defsig_rtmem_outer.o ABSOLUTE
    ../clib/signal.c                         0x00000000   Number         0  defsig_other.o ABSOLUTE
    ../clib/signal.c                         0x00000000   Number         0  defsig_fpe_outer.o ABSOLUTE
    ../clib/signal.c                         0x00000000   Number         0  defsig_exit.o ABSOLUTE
    ../clib/signal.c                         0x00000000   Number         0  defsig_rtmem_formal.o ABSOLUTE
    ../clib/signal.c                         0x00000000   Number         0  defsig_fpe_inner.o ABSOLUTE
    ../clib/signal.c                         0x00000000   Number         0  defsig_cppl_inner.o ABSOLUTE
    ../clib/signal.c                         0x00000000   Number         0  defsig_general.o ABSOLUTE
    ../clib/signal.c                         0x00000000   Number         0  defsig_abrt_inner.o ABSOLUTE
    ../clib/signal.c                         0x00000000   Number         0  defsig_rtred_inner.o ABSOLUTE
    ../clib/signal.c                         0x00000000   Number         0  defsig_fpe_formal.o ABSOLUTE
    ../clib/signal.c                         0x00000000   Number         0  defsig_pvfn_inner.o ABSOLUTE
    ../clib/signal.c                         0x00000000   Number         0  defsig_stak_inner.o ABSOLUTE
    ../clib/signal.c                         0x00000000   Number         0  defsig_rtmem_inner.o ABSOLUTE
    ../clib/signal.s                         0x00000000   Number         0  defsig.o ABSOLUTE
    ../clib/stdlib.c                         0x00000000   Number         0  exit.o ABSOLUTE
    ../clib/string.c                         0x00000000   Number         0  strcpy.o ABSOLUTE
    ../clib/string.c                         0x00000000   Number         0  strlen.o ABSOLUTE
    ../clib/string.c                         0x00000000   Number         0  memcmp.o ABSOLUTE
    ../fplib/fpinit.s                        0x00000000   Number         0  fpinit.o ABSOLUTE
    CMSIS\Drivers\source\lpc17xx_adc.c       0x00000000   Number         0  lpc17xx_adc.o ABSOLUTE
    CMSIS\Drivers\source\lpc17xx_clkpwr.c    0x00000000   Number         0  lpc17xx_clkpwr.o ABSOLUTE
    CMSIS\Drivers\source\lpc17xx_gpio.c      0x00000000   Number         0  lpc17xx_gpio.o ABSOLUTE
    CMSIS\Drivers\source\lpc17xx_libcfg_default.c 0x00000000   Number         0  lpc17xx_libcfg_default.o ABSOLUTE
    CMSIS\Drivers\source\lpc17xx_pinsel.c    0x00000000   Number         0  lpc17xx_pinsel.o ABSOLUTE
    CMSIS\Drivers\source\lpc17xx_uart.c      0x00000000   Number         0  lpc17xx_uart.o ABSOLUTE
    CMSIS\\Drivers\\source\\lpc17xx_adc.c    0x00000000   Number         0  lpc17xx_adc.o ABSOLUTE
    CMSIS\\Drivers\\source\\lpc17xx_clkpwr.c 0x00000000   Number         0  lpc17xx_clkpwr.o ABSOLUTE
    CMSIS\\Drivers\\source\\lpc17xx_gpio.c   0x00000000   Number         0  lpc17xx_gpio.o ABSOLUTE
    CMSIS\\Drivers\\source\\lpc17xx_pinsel.c 0x00000000   Number         0  lpc17xx_pinsel.o ABSOLUTE
    CMSIS\\Drivers\\source\\lpc17xx_uart.c   0x00000000   Number         0  lpc17xx_uart.o ABSOLUTE
    FreeRTOS-Plus-TCP\FreeRTOS_ARP.c         0x00000000   Number         0  freertos_arp.o ABSOLUTE
    FreeRTOS-Plus-TCP\FreeRTOS_DNS.c         0x00000000   Number         0  freertos_dns.o ABSOLUTE
    FreeRTOS-Plus-TCP\FreeRTOS_IP.c          0x00000000   Number         0  freertos_ip.o ABSOLUTE
    FreeRTOS-Plus-TCP\FreeRTOS_Sockets.c     0x00000000   Number         0  freertos_sockets.o ABSOLUTE
    FreeRTOS-Plus-TCP\FreeRTOS_Stream_Buffer.c 0x00000000   Number         0  freertos_stream_buffer.o ABSOLUTE
    FreeRTOS-Plus-TCP\FreeRTOS_TCP_IP.c      0x00000000   Number         0  freertos_tcp_ip.o ABSOLUTE
    FreeRTOS-Plus-TCP\FreeRTOS_TCP_WIN.c     0x00000000   Number         0  freertos_tcp_win.o ABSOLUTE
    FreeRTOS-Plus-TCP\FreeRTOS_UDP_IP.c      0x00000000   Number         0  freertos_udp_ip.o ABSOLUTE
    FreeRTOS-Plus-TCP\portable\BufferManagement\BufferAllocation_2.c 0x00000000   Number         0  bufferallocation_2.o ABSOLUTE
    FreeRTOS\\port.c                         0x00000000   Number         0  port.o ABSOLUTE
    FreeRTOS\event_groups.c                  0x00000000   Number         0  event_groups.o ABSOLUTE
    FreeRTOS\heap_4.c                        0x00000000   Number         0  heap_4.o ABSOLUTE
    FreeRTOS\list.c                          0x00000000   Number         0  list.o ABSOLUTE
    FreeRTOS\port.c                          0x00000000   Number         0  port.o ABSOLUTE
    FreeRTOS\queue.c                         0x00000000   Number         0  queue.o ABSOLUTE
    FreeRTOS\tasks.c                         0x00000000   Number         0  tasks.o ABSOLUTE
    FreeRTOS\timers.c                        0x00000000   Number         0  timers.o ABSOLUTE
    LibFreeRTOS\startup_MPS_CM3.s            0x00000000   Number         0  startup_mps_cm3.o ABSOLUTE
    NetworkHAL.c                             0x00000000   Number         0  networkhal.o ABSOLUTE
    NetworkHAL.c                             0x00000000   Number         0  networkhal.o ABSOLUTE
    dc.s                                     0x00000000   Number         0  dc.o ABSOLUTE
    freeRTOSAppStaticAlloc.c                 0x00000000   Number         0  freertosappstaticalloc.o ABSOLUTE
    lpc17xx_emac.c                           0x00000000   Number         0  lpc17xx_emac.o ABSOLUTE
    lpc17xx_emac.c                           0x00000000   Number         0  lpc17xx_emac.o ABSOLUTE
    main.c                                   0x00000000   Number         0  main.o ABSOLUTE
    main.c                                   0x00000000   Number         0  main.o ABSOLUTE
    system_LPC17xx.c                         0x00000000   Number         0  system_lpc17xx.o ABSOLUTE
    system_LPC17xx.c                         0x00000000   Number         0  system_lpc17xx.o ABSOLUTE
    !!!main                                  0x000000cc   Section        8  __main.o(!!!main)
    !!!scatter                               0x000000d4   Section       52  __scatter.o(!!!scatter)
    !!handler_copy                           0x00000108   Section       26  __scatter_copy.o(!!handler_copy)
    !!handler_zi                             0x00000124   Section       28  __scatter_zi.o(!!handler_zi)
    .ARM.Collect$$_printf_percent$$00000000  0x00000140   Section        0  _printf_percent.o(.ARM.Collect$$_printf_percent$$00000000)
    .ARM.Collect$$_printf_percent$$0000000A  0x00000140   Section        6  _printf_u.o(.ARM.Collect$$_printf_percent$$0000000A)
    .ARM.Collect$$_printf_percent$$00000017  0x00000146   Section        4  _printf_percent_end.o(.ARM.Collect$$_printf_percent$$00000017)
    .ARM.Collect$$libinit$$00000000          0x0000014a   Section        2  libinit.o(.ARM.Collect$$libinit$$00000000)
    .ARM.Collect$$libinit$$00000002          0x0000014c   Section        0  libinit2.o(.ARM.Collect$$libinit$$00000002)
    .ARM.Collect$$libinit$$00000004          0x0000014c   Section        0  libinit2.o(.ARM.Collect$$libinit$$00000004)
    .ARM.Collect$$libinit$$0000000A          0x0000014c   Section        0  libinit2.o(.ARM.Collect$$libinit$$0000000A)
    .ARM.Collect$$libinit$$0000000C          0x0000014c   Section        0  libinit2.o(.ARM.Collect$$libinit$$0000000C)
    .ARM.Collect$$libinit$$0000000E          0x0000014c   Section        0  libinit2.o(.ARM.Collect$$libinit$$0000000E)
    .ARM.Collect$$libinit$$00000011          0x0000014c   Section        0  libinit2.o(.ARM.Collect$$libinit$$00000011)
    .ARM.Collect$$libinit$$00000013          0x0000014c   Section        0  libinit2.o(.ARM.Collect$$libinit$$00000013)
    .ARM.Collect$$libinit$$00000015          0x0000014c   Section        0  libinit2.o(.ARM.Collect$$libinit$$00000015)
    .ARM.Collect$$libinit$$00000017          0x0000014c   Section        0  libinit2.o(.ARM.Collect$$libinit$$00000017)
    .ARM.Collect$$libinit$$00000019          0x0000014c   Section        0  libinit2.o(.ARM.Collect$$libinit$$00000019)
    .ARM.Collect$$libinit$$0000001B          0x0000014c   Section        0  libinit2.o(.ARM.Collect$$libinit$$0000001B)
    .ARM.Collect$$libinit$$0000001D          0x0000014c   Section        0  libinit2.o(.ARM.Collect$$libinit$$0000001D)
    .ARM.Collect$$libinit$$0000001F          0x0000014c   Section        0  libinit2.o(.ARM.Collect$$libinit$$0000001F)
    .ARM.Collect$$libinit$$00000021          0x0000014c   Section        0  libinit2.o(.ARM.Collect$$libinit$$00000021)
    .ARM.Collect$$libinit$$00000023          0x0000014c   Section        0  libinit2.o(.ARM.Collect$$libinit$$00000023)
    .ARM.Collect$$libinit$$00000025          0x0000014c   Section        0  libinit2.o(.ARM.Collect$$libinit$$00000025)
    .ARM.Collect$$libinit$$0000002C          0x0000014c   Section        0  libinit2.o(.ARM.Collect$$libinit$$0000002C)
    .ARM.Collect$$libinit$$0000002E          0x0000014c   Section        0  libinit2.o(.ARM.Collect$$libinit$$0000002E)
    .ARM.Collect$$libinit$$00000030          0x0000014c   Section        0  libinit2.o(.ARM.Collect$$libinit$$00000030)
    .ARM.Collect$$libinit$$00000032          0x0000014c   Section        0  libinit2.o(.ARM.Collect$$libinit$$00000032)
    .ARM.Collect$$libinit$$00000033          0x0000014c   Section        2  libinit2.o(.ARM.Collect$$libinit$$00000033)
    .ARM.Collect$$libshutdown$$00000000      0x0000014e   Section        2  libshutdown.o(.ARM.Collect$$libshutdown$$00000000)
    .ARM.Collect$$libshutdown$$00000002      0x00000150   Section        0  libshutdown2.o(.ARM.Collect$$libshutdown$$00000002)
    .ARM.Collect$$libshutdown$$00000004      0x00000150   Section        0  libshutdown2.o(.ARM.Collect$$libshutdown$$00000004)
    .ARM.Collect$$libshutdown$$00000007      0x00000150   Section        0  libshutdown2.o(.ARM.Collect$$libshutdown$$00000007)
    .ARM.Collect$$libshutdown$$0000000A      0x00000150   Section        0  libshutdown2.o(.ARM.Collect$$libshutdown$$0000000A)
    .ARM.Collect$$libshutdown$$0000000C      0x00000150   Section        0  libshutdown2.o(.ARM.Collect$$libshutdown$$0000000C)
    .ARM.Collect$$libshutdown$$0000000F      0x00000150   Section        0  libshutdown2.o(.ARM.Collect$$libshutdown$$0000000F)
    .ARM.Collect$$libshutdown$$00000010      0x00000150   Section        2  libshutdown2.o(.ARM.Collect$$libshutdown$$00000010)
    .ARM.Collect$$rtentry$$00000000          0x00000152   Section        0  __rtentry.o(.ARM.Collect$$rtentry$$00000000)
    .ARM.Collect$$rtentry$$00000002          0x00000152   Section        0  __rtentry2.o(.ARM.Collect$$rtentry$$00000002)
    .ARM.Collect$$rtentry$$00000004          0x00000152   Section        6  __rtentry4.o(.ARM.Collect$$rtentry$$00000004)
    .ARM.Collect$$rtentry$$00000009          0x00000158   Section        0  __rtentry2.o(.ARM.Collect$$rtentry$$00000009)
    .ARM.Collect$$rtentry$$0000000A          0x00000158   Section        4  __rtentry2.o(.ARM.Collect$$rtentry$$0000000A)
    .ARM.Collect$$rtentry$$0000000C          0x0000015c   Section        0  __rtentry2.o(.ARM.Collect$$rtentry$$0000000C)
    .ARM.Collect$$rtentry$$0000000D          0x0000015c   Section        8  __rtentry2.o(.ARM.Collect$$rtentry$$0000000D)
    .ARM.Collect$$rtexit$$00000000           0x00000164   Section        2  rtexit.o(.ARM.Collect$$rtexit$$00000000)
    .ARM.Collect$$rtexit$$00000002           0x00000166   Section        0  rtexit2.o(.ARM.Collect$$rtexit$$00000002)
    .ARM.Collect$$rtexit$$00000003           0x00000166   Section        4  rtexit2.o(.ARM.Collect$$rtexit$$00000003)
    .ARM.Collect$$rtexit$$00000004           0x0000016a   Section        6  rtexit2.o(.ARM.Collect$$rtexit$$00000004)
    .emb_text                                0x00000170   Section      150  port.o(.emb_text)
    .text                                    0x00000208   Section       52  startup_mps_cm3.o(.text)
    .text                                    0x0000023c   Section      238  lludivv7m.o(.text)
    .text                                    0x0000032c   Section        0  noretval__2sprintf.o(.text)
    .text                                    0x00000354   Section        0  __printf.o(.text)
    .text                                    0x000003bc   Section        0  _printf_dec.o(.text)
    .text                                    0x00000434   Section        0  memcmp.o(.text)
    .text                                    0x0000048c   Section        0  strlen.o(.text)
    .text                                    0x000004ca   Section      138  rt_memcpy_v6.o(.text)
    .text                                    0x00000554   Section      132  rt_memmove_v6.o(.text)
    .text                                    0x000005d8   Section      100  rt_memcpy_w.o(.text)
    .text                                    0x0000063c   Section       16  aeabi_memset.o(.text)
    .text                                    0x0000064c   Section       68  rt_memclr.o(.text)
    .text                                    0x00000690   Section       78  rt_memclr_w.o(.text)
    .text                                    0x000006de   Section        0  heapauxi.o(.text)
    .text                                    0x000006e4   Section        0  _printf_intcommon.o(.text)
    .text                                    0x00000798   Section        0  _printf_char_common.o(.text)
    _printf_input_char                       0x00000799   Thumb Code    10  _printf_char_common.o(.text)
    .text                                    0x000007c8   Section        0  _sputc.o(.text)
    .text                                    0x000007d2   Section      122  rt_memmove_w.o(.text)
    .text                                    0x0000084c   Section       74  sys_stackheap_outer.o(.text)
    .text                                    0x00000896   Section        0  exit.o(.text)
    .text                                    0x000008a8   Section        8  libspace.o(.text)
    .text                                    0x000008b0   Section        0  sys_exit.o(.text)
    .text                                    0x000008bc   Section        2  use_no_semi.o(.text)
    .text                                    0x000008be   Section        0  indicate_semi.o(.text)
    i.ADC_ChannelCmd                         0x000008c0   Section        0  lpc17xx_adc.o(i.ADC_ChannelCmd)
    i.ADC_ChannelGetData                     0x00000914   Section        0  lpc17xx_adc.o(i.ADC_ChannelGetData)
    i.ADC_ChannelGetStatus                   0x00000960   Section        0  lpc17xx_adc.o(i.ADC_ChannelGetStatus)
    i.ADC_Init                               0x000009cc   Section        0  lpc17xx_adc.o(i.ADC_Init)
    i.ADC_StartCmd                           0x00000a4c   Section        0  lpc17xx_adc.o(i.ADC_StartCmd)
    i.CLKPWR_ConfigPPWR                      0x00000ac4   Section        0  lpc17xx_clkpwr.o(i.CLKPWR_ConfigPPWR)
    i.CLKPWR_GetPCLK                         0x00000af4   Section        0  lpc17xx_clkpwr.o(i.CLKPWR_GetPCLK)
    i.EMAC_CheckReceiveDataStatus            0x00000b34   Section        0  lpc17xx_emac.o(i.EMAC_CheckReceiveDataStatus)
    i.EMAC_CheckReceiveIndex                 0x00000b54   Section        0  lpc17xx_emac.o(i.EMAC_CheckReceiveIndex)
    i.EMAC_CheckTransmitIndex                0x00000b70   Section        0  lpc17xx_emac.o(i.EMAC_CheckTransmitIndex)
    i.EMAC_GetReceiveDataSize                0x00000b90   Section        0  lpc17xx_emac.o(i.EMAC_GetReceiveDataSize)
    i.EMAC_Init                              0x00000ba8   Section        0  lpc17xx_emac.o(i.EMAC_Init)
    i.EMAC_ReadPacketBuffer                  0x00000ce4   Section        0  lpc17xx_emac.o(i.EMAC_ReadPacketBuffer)
    i.EMAC_SetPHYMode                        0x00000d14   Section        0  lpc17xx_emac.o(i.EMAC_SetPHYMode)
    i.EMAC_UpdatePHYStatus                   0x00000dd0   Section        0  lpc17xx_emac.o(i.EMAC_UpdatePHYStatus)
    i.EMAC_UpdateRxConsumeIndex              0x00000e4c   Section        0  lpc17xx_emac.o(i.EMAC_UpdateRxConsumeIndex)
    i.EMAC_UpdateTxProduceIndex              0x00000e64   Section        0  lpc17xx_emac.o(i.EMAC_UpdateTxProduceIndex)
    i.EMAC_WritePacketBuffer                 0x00000e7c   Section        0  lpc17xx_emac.o(i.EMAC_WritePacketBuffer)
    i.ENET_IRQHandler                        0x00000eb8   Section        0  networkhal.o(i.ENET_IRQHandler)
    i.FreeRTOS_IPInit                        0x00000f14   Section        0  freertos_ip.o(i.FreeRTOS_IPInit)
    i.FreeRTOS_NetworkDown                   0x00001034   Section        0  freertos_ip.o(i.FreeRTOS_NetworkDown)
    i.FreeRTOS_OutputARPRequest              0x0000105c   Section        0  freertos_arp.o(i.FreeRTOS_OutputARPRequest)
    i.FreeRTOS_bind                          0x0000107e   Section        0  freertos_sockets.o(i.FreeRTOS_bind)
    i.FreeRTOS_closesocket                   0x000010fc   Section        0  freertos_sockets.o(i.FreeRTOS_closesocket)
    i.FreeRTOS_outstanding                   0x0000112c   Section        0  freertos_sockets.o(i.FreeRTOS_outstanding)
    i.FreeRTOS_recvfrom                      0x00001154   Section        0  freertos_sockets.o(i.FreeRTOS_recvfrom)
    i.FreeRTOS_sendto                        0x0000123c   Section        0  freertos_sockets.o(i.FreeRTOS_sendto)
    i.FreeRTOS_setsockopt                    0x00001314   Section        0  freertos_sockets.o(i.FreeRTOS_setsockopt)
    i.FreeRTOS_socket                        0x00001520   Section        0  freertos_sockets.o(i.FreeRTOS_socket)
    i.GPIO_ClearValue                        0x000015b8   Section        0  lpc17xx_gpio.o(i.GPIO_ClearValue)
    i.GPIO_ReadValue                         0x000015f4   Section        0  lpc17xx_gpio.o(i.GPIO_ReadValue)
    i.GPIO_SetDir                            0x00001630   Section        0  lpc17xx_gpio.o(i.GPIO_SetDir)
    i.GPIO_SetValue                          0x00001678   Section        0  lpc17xx_gpio.o(i.GPIO_SetValue)
    i.InitialiseNetwork                      0x000016b4   Section        0  networkhal.o(i.InitialiseNetwork)
    InitialiseNetwork                        0x000016b5   Thumb Code   116  networkhal.o(i.InitialiseNetwork)
    i.PINSEL_ConfigPin                       0x00001748   Section        0  lpc17xx_pinsel.o(i.PINSEL_ConfigPin)
    i.SendData                               0x000017d4   Section        0  networkhal.o(i.SendData)
    SendData                                 0x000017d5   Thumb Code    30  networkhal.o(i.SendData)
    i.SystemCoreClockUpdate                  0x000017f4   Section        0  system_lpc17xx.o(i.SystemCoreClockUpdate)
    i.SystemInit                             0x00001930   Section        0  system_lpc17xx.o(i.SystemInit)
    i.UART_ConfigStructInit                  0x00001a70   Section        0  lpc17xx_uart.o(i.UART_ConfigStructInit)
    i.UART_FIFOConfigStructInit              0x00001a82   Section        0  lpc17xx_uart.o(i.UART_FIFOConfigStructInit)
    i.UART_Init                              0x00001a90   Section        0  lpc17xx_uart.o(i.UART_Init)
    i.UART_Send                              0x00001d98   Section        0  lpc17xx_uart.o(i.UART_Send)
    i.UART_TxCmd                             0x00001ea0   Section        0  lpc17xx_uart.o(i.UART_TxCmd)
    i.blinkCallBack                          0x00001f2c   Section        0  main.o(i.blinkCallBack)
    blinkCallBack                            0x00001f2d   Thumb Code    40  main.o(i.blinkCallBack)
    i.check_failed                           0x00001f54   Section        0  lpc17xx_libcfg_default.o(i.check_failed)
    i.eARPGetCacheEntry                      0x00001f58   Section        0  freertos_arp.o(i.eARPGetCacheEntry)
    i.eARPProcessPacket                      0x00001fd0   Section        0  freertos_arp.o(i.eARPProcessPacket)
    i.eConsiderFrameForProcessing            0x0000207c   Section        0  freertos_ip.o(i.eConsiderFrameForProcessing)
    i.lStreamBufferAdd                       0x000020c8   Section        0  freertos_stream_buffer.o(i.lStreamBufferAdd)
    i.lStreamBufferDistance                  0x000021b8   Section        0  freertos_tcp_ip.o(i.lStreamBufferDistance)
    lStreamBufferDistance                    0x000021b9   Thumb Code    22  freertos_tcp_ip.o(i.lStreamBufferDistance)
    i.lStreamBufferFrontSpace                0x000021ce   Section        0  freertos_sockets.o(i.lStreamBufferFrontSpace)
    lStreamBufferFrontSpace                  0x000021cf   Thumb Code    16  freertos_sockets.o(i.lStreamBufferFrontSpace)
    i.lStreamBufferFrontSpace                0x000021de   Section        0  freertos_tcp_ip.o(i.lStreamBufferFrontSpace)
    lStreamBufferFrontSpace                  0x000021df   Thumb Code    16  freertos_tcp_ip.o(i.lStreamBufferFrontSpace)
    i.lStreamBufferGet                       0x000021ee   Section        0  freertos_stream_buffer.o(i.lStreamBufferGet)
    i.lStreamBufferGetSize                   0x00002298   Section        0  freertos_sockets.o(i.lStreamBufferGetSize)
    lStreamBufferGetSize                     0x00002299   Thumb Code    28  freertos_sockets.o(i.lStreamBufferGetSize)
    i.lStreamBufferMidSpace                  0x000022b4   Section        0  freertos_tcp_ip.o(i.lStreamBufferMidSpace)
    lStreamBufferMidSpace                    0x000022b5   Thumb Code    16  freertos_tcp_ip.o(i.lStreamBufferMidSpace)
    i.lStreamBufferSpace                     0x000022c4   Section        0  freertos_sockets.o(i.lStreamBufferSpace)
    lStreamBufferSpace                       0x000022c5   Thumb Code    24  freertos_sockets.o(i.lStreamBufferSpace)
    i.lStreamBufferSpace                     0x000022dc   Section        0  freertos_tcp_ip.o(i.lStreamBufferSpace)
    lStreamBufferSpace                       0x000022dd   Thumb Code    24  freertos_tcp_ip.o(i.lStreamBufferSpace)
    i.lTCPAddRxdata                          0x000022f4   Section        0  freertos_sockets.o(i.lTCPAddRxdata)
    i.lTCPWindowRxCheck                      0x0000236e   Section        0  freertos_tcp_win.o(i.lTCPWindowRxCheck)
    i.lTCPWindowTxAdd                        0x0000238c   Section        0  freertos_tcp_win.o(i.lTCPWindowTxAdd)
    i.leBotoesMensagens                      0x0000240c   Section        0  main.o(i.leBotoesMensagens)
    i.leCanalAD                              0x0000249c   Section        0  main.o(i.leCanalAD)
    i.lerBotaoLed                            0x000024fc   Section        0  main.o(i.lerBotaoLed)
    i.main                                   0x00002518   Section        0  main.o(i.main)
    i.mensagemUART                           0x00002768   Section        0  main.o(i.mensagemUART)
    i.potenciometro                          0x000027a4   Section        0  main.o(i.potenciometro)
    i.prvAddCurrentTaskToDelayedList         0x000027d4   Section        0  tasks.o(i.prvAddCurrentTaskToDelayedList)
    prvAddCurrentTaskToDelayedList           0x000027d5   Thumb Code   108  tasks.o(i.prvAddCurrentTaskToDelayedList)
    i.prvAddNewTaskToReadyList               0x00002848   Section        0  tasks.o(i.prvAddNewTaskToReadyList)
    prvAddNewTaskToReadyList                 0x00002849   Thumb Code   194  tasks.o(i.prvAddNewTaskToReadyList)
    i.prvAllowIPPacket                       0x0000292c   Section        0  freertos_ip.o(i.prvAllowIPPacket)
    prvAllowIPPacket                         0x0000292d   Thumb Code   132  freertos_ip.o(i.prvAllowIPPacket)
    i.prvCacheLookup                         0x000029b8   Section        0  freertos_arp.o(i.prvCacheLookup)
    prvCacheLookup                           0x000029b9   Thumb Code    74  freertos_arp.o(i.prvCacheLookup)
    i.prvCalculateSleepTime                  0x00002a08   Section        0  freertos_ip.o(i.prvCalculateSleepTime)
    prvCalculateSleepTime                    0x00002a09   Thumb Code    40  freertos_ip.o(i.prvCalculateSleepTime)
    i.prvCheckNetworkTimers                  0x00002a38   Section        0  freertos_ip.o(i.prvCheckNetworkTimers)
    prvCheckNetworkTimers                    0x00002a39   Thumb Code   118  freertos_ip.o(i.prvCheckNetworkTimers)
    i.prvCheckOptions                        0x00002ac8   Section        0  freertos_tcp_ip.o(i.prvCheckOptions)
    prvCheckOptions                          0x00002ac9   Thumb Code   168  freertos_tcp_ip.o(i.prvCheckOptions)
    i.prvCheckRxData                         0x00002b70   Section        0  freertos_tcp_ip.o(i.prvCheckRxData)
    prvCheckRxData                           0x00002b71   Thumb Code   150  freertos_tcp_ip.o(i.prvCheckRxData)
    i.prvDetermineSocketSize                 0x00002c06   Section        0  freertos_sockets.o(i.prvDetermineSocketSize)
    prvDetermineSocketSize                   0x00002c07   Thumb Code    66  freertos_sockets.o(i.prvDetermineSocketSize)
    i.prvEMACDeferredInterruptHandlerTask    0x00002c48   Section        0  networkhal.o(i.prvEMACDeferredInterruptHandlerTask)
    prvEMACDeferredInterruptHandlerTask      0x00002c49   Thumb Code   140  networkhal.o(i.prvEMACDeferredInterruptHandlerTask)
    i.prvGetPrivatePortNumber                0x00002cdc   Section        0  freertos_sockets.o(i.prvGetPrivatePortNumber)
    prvGetPrivatePortNumber                  0x00002cdd   Thumb Code    94  freertos_sockets.o(i.prvGetPrivatePortNumber)
    i.prvHandleEstablished                   0x00002d48   Section        0  freertos_tcp_ip.o(i.prvHandleEstablished)
    prvHandleEstablished                     0x00002d49   Thumb Code   396  freertos_tcp_ip.o(i.prvHandleEstablished)
    i.prvHandleEthernetPacket                0x00002ed8   Section        0  freertos_ip.o(i.prvHandleEthernetPacket)
    prvHandleEthernetPacket                  0x00002ed9   Thumb Code    46  freertos_ip.o(i.prvHandleEthernetPacket)
    i.prvHandleListen                        0x00002f10   Section        0  freertos_tcp_ip.o(i.prvHandleListen)
    prvHandleListen                          0x00002f11   Thumb Code   262  freertos_tcp_ip.o(i.prvHandleListen)
    i.prvHandleSynReceived                   0x0000301c   Section        0  freertos_tcp_ip.o(i.prvHandleSynReceived)
    prvHandleSynReceived                     0x0000301d   Thumb Code   270  freertos_tcp_ip.o(i.prvHandleSynReceived)
    i.prvIPTask                              0x0000312c   Section        0  freertos_ip.o(i.prvIPTask)
    prvIPTask                                0x0000312d   Thumb Code   244  freertos_ip.o(i.prvIPTask)
    i.prvIPTimerCheck                        0x00003234   Section        0  freertos_ip.o(i.prvIPTimerCheck)
    prvIPTimerCheck                          0x00003235   Thumb Code    54  freertos_ip.o(i.prvIPTimerCheck)
    i.prvIPTimerReload                       0x0000326a   Section        0  freertos_ip.o(i.prvIPTimerReload)
    prvIPTimerReload                         0x0000326b   Thumb Code    18  freertos_ip.o(i.prvIPTimerReload)
    i.prvIPTimerStart                        0x0000327c   Section        0  freertos_ip.o(i.prvIPTimerStart)
    prvIPTimerStart                          0x0000327d   Thumb Code    42  freertos_ip.o(i.prvIPTimerStart)
    i.prvIdleTask                            0x000032a8   Section        0  tasks.o(i.prvIdleTask)
    prvIdleTask                              0x000032a9   Thumb Code    80  tasks.o(i.prvIdleTask)
    i.prvParseDNSReply                       0x00003300   Section        0  freertos_dns.o(i.prvParseDNSReply)
    prvParseDNSReply                         0x00003301   Thumb Code   178  freertos_dns.o(i.prvParseDNSReply)
    i.prvProcessEthernetPacket               0x000033b2   Section        0  freertos_ip.o(i.prvProcessEthernetPacket)
    prvProcessEthernetPacket                 0x000033b3   Thumb Code    98  freertos_ip.o(i.prvProcessEthernetPacket)
    i.prvProcessICMPEchoRequest              0x00003414   Section        0  freertos_ip.o(i.prvProcessICMPEchoRequest)
    prvProcessICMPEchoRequest                0x00003415   Thumb Code    54  freertos_ip.o(i.prvProcessICMPEchoRequest)
    i.prvProcessICMPPacket                   0x00003450   Section        0  freertos_ip.o(i.prvProcessICMPPacket)
    prvProcessICMPPacket                     0x00003451   Thumb Code    36  freertos_ip.o(i.prvProcessICMPPacket)
    i.prvProcessIPPacket                     0x00003474   Section        0  freertos_ip.o(i.prvProcessIPPacket)
    prvProcessIPPacket                       0x00003475   Thumb Code   216  freertos_ip.o(i.prvProcessIPPacket)
    i.prvProcessNetworkDownEvent             0x00003554   Section        0  freertos_ip.o(i.prvProcessNetworkDownEvent)
    prvProcessNetworkDownEvent               0x00003555   Thumb Code    60  freertos_ip.o(i.prvProcessNetworkDownEvent)
    i.prvSampleTimeNow                       0x00003598   Section        0  timers.o(i.prvSampleTimeNow)
    prvSampleTimeNow                         0x00003599   Thumb Code   166  timers.o(i.prvSampleTimeNow)
    i.prvSendData                            0x00003644   Section        0  freertos_tcp_ip.o(i.prvSendData)
    prvSendData                              0x00003645   Thumb Code   140  freertos_tcp_ip.o(i.prvSendData)
    i.prvSetOptions                          0x000036d4   Section        0  freertos_tcp_ip.o(i.prvSetOptions)
    prvSetOptions                            0x000036d5   Thumb Code    90  freertos_tcp_ip.o(i.prvSetOptions)
    i.prvSetSynAckOptions                    0x00003734   Section        0  freertos_tcp_ip.o(i.prvSetSynAckOptions)
    prvSetSynAckOptions                      0x00003735   Thumb Code    30  freertos_tcp_ip.o(i.prvSetSynAckOptions)
    i.prvSkipNameField                       0x00003752   Section        0  freertos_dns.o(i.prvSkipNameField)
    prvSkipNameField                         0x00003753   Thumb Code    32  freertos_dns.o(i.prvSkipNameField)
    i.prvSocketSetMSS                        0x00003774   Section        0  freertos_tcp_ip.o(i.prvSocketSetMSS)
    prvSocketSetMSS                          0x00003775   Thumb Code    78  freertos_tcp_ip.o(i.prvSocketSetMSS)
    i.prvStoreRxData                         0x000037cc   Section        0  freertos_tcp_ip.o(i.prvStoreRxData)
    prvStoreRxData                           0x000037cd   Thumb Code   176  freertos_tcp_ip.o(i.prvStoreRxData)
    i.prvTCPAddTxData                        0x0000387c   Section        0  freertos_tcp_ip.o(i.prvTCPAddTxData)
    prvTCPAddTxData                          0x0000387d   Thumb Code    90  freertos_tcp_ip.o(i.prvTCPAddTxData)
    i.prvTCPBufferResize                     0x000038d8   Section        0  freertos_tcp_ip.o(i.prvTCPBufferResize)
    prvTCPBufferResize                       0x000038d9   Thumb Code   132  freertos_tcp_ip.o(i.prvTCPBufferResize)
    i.prvTCPCreateWindow                     0x00003960   Section        0  freertos_tcp_ip.o(i.prvTCPCreateWindow)
    prvTCPCreateWindow                       0x00003961   Thumb Code    58  freertos_tcp_ip.o(i.prvTCPCreateWindow)
    i.prvTCPHandleFin                        0x000039a0   Section        0  freertos_tcp_ip.o(i.prvTCPHandleFin)
    prvTCPHandleFin                          0x000039a1   Thumb Code   232  freertos_tcp_ip.o(i.prvTCPHandleFin)
    i.prvTCPHandleState                      0x00003a8c   Section        0  freertos_tcp_ip.o(i.prvTCPHandleState)
    prvTCPHandleState                        0x00003a8d   Thumb Code   404  freertos_tcp_ip.o(i.prvTCPHandleState)
    i.prvTCPNextTimeout                      0x00003c20   Section        0  freertos_tcp_ip.o(i.prvTCPNextTimeout)
    prvTCPNextTimeout                        0x00003c21   Thumb Code   140  freertos_tcp_ip.o(i.prvTCPNextTimeout)
    i.prvTCPPrepareConnect                   0x00003cac   Section        0  freertos_tcp_ip.o(i.prvTCPPrepareConnect)
    prvTCPPrepareConnect                     0x00003cad   Thumb Code   312  freertos_tcp_ip.o(i.prvTCPPrepareConnect)
    i.prvTCPPrepareSend                      0x00003dec   Section        0  freertos_tcp_ip.o(i.prvTCPPrepareSend)
    prvTCPPrepareSend                        0x00003ded   Thumb Code   412  freertos_tcp_ip.o(i.prvTCPPrepareSend)
    i.prvTCPReturnPacket                     0x00003f88   Section        0  freertos_tcp_ip.o(i.prvTCPReturnPacket)
    prvTCPReturnPacket                       0x00003f89   Thumb Code   540  freertos_tcp_ip.o(i.prvTCPReturnPacket)
    i.prvTCPSendPacket                       0x000041ac   Section        0  freertos_tcp_ip.o(i.prvTCPSendPacket)
    prvTCPSendPacket                         0x000041ad   Thumb Code   138  freertos_tcp_ip.o(i.prvTCPSendPacket)
    i.prvTCPSendRepeated                     0x00004238   Section        0  freertos_tcp_ip.o(i.prvTCPSendRepeated)
    prvTCPSendRepeated                       0x00004239   Thumb Code    72  freertos_tcp_ip.o(i.prvTCPSendRepeated)
    i.prvTCPSendReset                        0x00004284   Section        0  freertos_tcp_ip.o(i.prvTCPSendReset)
    prvTCPSendReset                          0x00004285   Thumb Code    36  freertos_tcp_ip.o(i.prvTCPSendReset)
    i.prvTCPSetSocketCount                   0x000042a8   Section        0  freertos_sockets.o(i.prvTCPSetSocketCount)
    prvTCPSetSocketCount                     0x000042a9   Thumb Code    54  freertos_sockets.o(i.prvTCPSetSocketCount)
    i.prvTCPSocketCopy                       0x000042e4   Section        0  freertos_tcp_ip.o(i.prvTCPSocketCopy)
    prvTCPSocketCopy                         0x000042e5   Thumb Code   132  freertos_tcp_ip.o(i.prvTCPSocketCopy)
    i.prvTCPSocketIsActive                   0x0000436c   Section        0  freertos_tcp_ip.o(i.prvTCPSocketIsActive)
    prvTCPSocketIsActive                     0x0000436d   Thumb Code    42  freertos_tcp_ip.o(i.prvTCPSocketIsActive)
    i.prvTCPStatusAgeCheck                   0x00004396   Section        0  freertos_tcp_ip.o(i.prvTCPStatusAgeCheck)
    prvTCPStatusAgeCheck                     0x00004397   Thumb Code   104  freertos_tcp_ip.o(i.prvTCPStatusAgeCheck)
    i.prvTCPTouchSocket                      0x000043fe   Section        0  freertos_tcp_ip.o(i.prvTCPTouchSocket)
    prvTCPTouchSocket                        0x000043ff   Thumb Code    12  freertos_tcp_ip.o(i.prvTCPTouchSocket)
    i.prvTCPWindowTxHasSpace                 0x0000440a   Section        0  freertos_tcp_win.o(i.prvTCPWindowTxHasSpace)
    prvTCPWindowTxHasSpace                   0x0000440b   Thumb Code    18  freertos_tcp_win.o(i.prvTCPWindowTxHasSpace)
    i.prvTaskExitError                       0x0000441c   Section        0  port.o(i.prvTaskExitError)
    prvTaskExitError                         0x0000441d   Thumb Code    16  port.o(i.prvTaskExitError)
    i.prvTcpCreateStream                     0x0000442c   Section        0  freertos_sockets.o(i.prvTcpCreateStream)
    prvTcpCreateStream                       0x0000442d   Thumb Code   122  freertos_sockets.o(i.prvTcpCreateStream)
    i.prvTimerTask                           0x000044ac   Section        0  timers.o(i.prvTimerTask)
    prvTimerTask                             0x000044ad   Thumb Code   672  timers.o(i.prvTimerTask)
    i.prvUnlockQueue                         0x00004754   Section        0  queue.o(i.prvUnlockQueue)
    prvUnlockQueue                           0x00004755   Thumb Code   108  queue.o(i.prvUnlockQueue)
    i.prvValidSocket                         0x000047c0   Section        0  freertos_sockets.o(i.prvValidSocket)
    prvValidSocket                           0x000047c1   Thumb Code    46  freertos_sockets.o(i.prvValidSocket)
    i.pvPortMalloc                           0x000047f0   Section        0  heap_4.o(i.pvPortMalloc)
    i.pvTaskIncrementMutexHeldCount          0x0000493c   Section        0  tasks.o(i.pvTaskIncrementMutexHeldCount)
    i.pxGetNetworkBufferWithDescriptor       0x00004954   Section        0  bufferallocation_2.o(i.pxGetNetworkBufferWithDescriptor)
    i.pxListFindListItemWithValue            0x000049d0   Section        0  freertos_sockets.o(i.pxListFindListItemWithValue)
    pxListFindListItemWithValue              0x000049d1   Thumb Code    48  freertos_sockets.o(i.pxListFindListItemWithValue)
    i.pxPortInitialiseStack                  0x00004a00   Section        0  port.o(i.pxPortInitialiseStack)
    i.pxTCPSocketLookup                      0x00004a24   Section        0  freertos_sockets.o(i.pxTCPSocketLookup)
    i.pxUDPPayloadBuffer_to_NetworkBuffer    0x00004a78   Section        0  freertos_ip.o(i.pxUDPPayloadBuffer_to_NetworkBuffer)
    i.pxUDPSocketLookup                      0x00004a94   Section        0  freertos_sockets.o(i.pxUDPSocketLookup)
    i.read_PHY                               0x00004ab0   Section        0  lpc17xx_emac.o(i.read_PHY)
    read_PHY                                 0x00004ab1   Thumb Code    62  lpc17xx_emac.o(i.read_PHY)
    i.recebeEnviaSerial                      0x00004af0   Section        0  main.o(i.recebeEnviaSerial)
    i.rx_descr_init                          0x00004b6c   Section        0  lpc17xx_emac.o(i.rx_descr_init)
    rx_descr_init                            0x00004b6d   Thumb Code    84  lpc17xx_emac.o(i.rx_descr_init)
    i.setEmacAddr                            0x00004bd4   Section        0  lpc17xx_emac.o(i.setEmacAddr)
    setEmacAddr                              0x00004bd5   Thumb Code    44  lpc17xx_emac.o(i.setEmacAddr)
    i.setEthernetPins                        0x00004c00   Section        0  networkhal.o(i.setEthernetPins)
    i.tx_descr_init                          0x00004d6c   Section        0  lpc17xx_emac.o(i.tx_descr_init)
    tx_descr_init                            0x00004d6d   Thumb Code    76  lpc17xx_emac.o(i.tx_descr_init)
    i.ulDNSHandlePacket                      0x00004dc8   Section        0  freertos_dns.o(i.ulDNSHandlePacket)
    i.ulTCPWindowTxAck                       0x00004de0   Section        0  freertos_tcp_win.o(i.ulTCPWindowTxAck)
    i.ulTCPWindowTxGet                       0x00004e38   Section        0  freertos_tcp_win.o(i.ulTCPWindowTxGet)
    i.ulTaskNotifyTake                       0x00004e9c   Section        0  tasks.o(i.ulTaskNotifyTake)
    i.ulTimerGetAge                          0x00004f08   Section        0  freertos_tcp_win.o(i.ulTimerGetAge)
    ulTimerGetAge                            0x00004f09   Thumb Code    14  freertos_tcp_win.o(i.ulTimerGetAge)
    i.usGenerateChecksum                     0x00004f16   Section        0  freertos_ip.o(i.usGenerateChecksum)
    i.usGenerateProtocolChecksum             0x00005074   Section        0  freertos_ip.o(i.usGenerateProtocolChecksum)
    i.uxListRemove                           0x0000514c   Section        0  list.o(i.uxListRemove)
    i.uxQueueMessagesWaiting                 0x00005172   Section        0  queue.o(i.uxQueueMessagesWaiting)
    i.uxTaskResetEventItemValue              0x00005184   Section        0  tasks.o(i.uxTaskResetEventItemValue)
    i.vARPAgeCache                           0x0000519c   Section        0  freertos_arp.o(i.vARPAgeCache)
    i.vARPGenerateRequestPacket              0x00005258   Section        0  freertos_arp.o(i.vARPGenerateRequestPacket)
    i.vARPRefreshCacheEntry                  0x000052a0   Section        0  freertos_arp.o(i.vARPRefreshCacheEntry)
    i.vApplicationGetIdleTaskMemory          0x000053f8   Section        0  freertosappstaticalloc.o(i.vApplicationGetIdleTaskMemory)
    i.vApplicationGetTimerTaskMemory         0x0000540c   Section        0  freertosappstaticalloc.o(i.vApplicationGetTimerTaskMemory)
    i.vApplicationIPNetworkEventHook         0x00005420   Section        0  main.o(i.vApplicationIPNetworkEventHook)
    i.vApplicationStackOverflowHook          0x00005424   Section        0  main.o(i.vApplicationStackOverflowHook)
    i.vEventGroupDelete                      0x00005488   Section        0  event_groups.o(i.vEventGroupDelete)
    i.vIPNetworkUpCalls                      0x000054bc   Section        0  freertos_ip.o(i.vIPNetworkUpCalls)
    i.vListInitialise                        0x000054e0   Section        0  list.o(i.vListInitialise)
    i.vListInitialiseItem                    0x000054f6   Section        0  list.o(i.vListInitialiseItem)
    i.vListInsert                            0x000054fc   Section        0  list.o(i.vListInsert)
    i.vListInsertEnd                         0x00005536   Section        0  list.o(i.vListInsertEnd)
    i.vNetworkSocketsInit                    0x00005550   Section        0  freertos_sockets.o(i.vNetworkSocketsInit)
    i.vPortEnterCritical                     0x00005588   Section        0  port.o(i.vPortEnterCritical)
    i.vPortExitCritical                      0x000055a4   Section        0  port.o(i.vPortExitCritical)
    i.vPortFree                              0x000055bc   Section        0  heap_4.o(i.vPortFree)
    i.vPortSetupTimerInterrupt               0x0000564c   Section        0  port.o(i.vPortSetupTimerInterrupt)
    i.vProcessGeneratedUDPPacket             0x00005670   Section        0  freertos_udp_ip.o(i.vProcessGeneratedUDPPacket)
    i.vQueueDelete                           0x0000574c   Section        0  queue.o(i.vQueueDelete)
    i.vQueueWaitForMessageRestricted         0x0000575a   Section        0  queue.o(i.vQueueWaitForMessageRestricted)
    i.vReleaseNetworkBuffer                  0x000057a4   Section        0  bufferallocation_2.o(i.vReleaseNetworkBuffer)
    i.vReleaseNetworkBufferAndDescriptor     0x000057b4   Section        0  bufferallocation_2.o(i.vReleaseNetworkBufferAndDescriptor)
    i.vReturnEthernetFrame                   0x00005800   Section        0  freertos_ip.o(i.vReturnEthernetFrame)
    i.vSocketBind                            0x0000582c   Section        0  freertos_sockets.o(i.vSocketBind)
    i.vSocketClose                           0x000058b4   Section        0  freertos_sockets.o(i.vSocketClose)
    i.vTCPStateChange                        0x00005922   Section        0  freertos_tcp_ip.o(i.vTCPStateChange)
    i.vTCPTimerSet                           0x000059fa   Section        0  freertos_tcp_win.o(i.vTCPTimerSet)
    vTCPTimerSet                             0x000059fb   Thumb Code    12  freertos_tcp_win.o(i.vTCPTimerSet)
    i.vTCPWindowCreate                       0x00005a08   Section        0  freertos_tcp_win.o(i.vTCPWindowCreate)
    i.vTCPWindowInit                         0x00005a3c   Section        0  freertos_tcp_win.o(i.vTCPWindowInit)
    i.vTaskDelay                             0x00005a98   Section        0  tasks.o(i.vTaskDelay)
    i.vTaskInternalSetTimeOutState           0x00005ad0   Section        0  tasks.o(i.vTaskInternalSetTimeOutState)
    i.vTaskMissedYield                       0x00005ae0   Section        0  tasks.o(i.vTaskMissedYield)
    i.vTaskPlaceOnEventList                  0x00005aec   Section        0  tasks.o(i.vTaskPlaceOnEventList)
    i.vTaskPlaceOnEventListRestricted        0x00005b0c   Section        0  tasks.o(i.vTaskPlaceOnEventListRestricted)
    i.vTaskPlaceOnUnorderedEventList         0x00005b3c   Section        0  tasks.o(i.vTaskPlaceOnUnorderedEventList)
    i.vTaskPriorityDisinheritAfterTimeout    0x00005b6c   Section        0  tasks.o(i.vTaskPriorityDisinheritAfterTimeout)
    i.vTaskRemoveFromUnorderedEventList      0x00005bf0   Section        0  tasks.o(i.vTaskRemoveFromUnorderedEventList)
    i.vTaskRetornoLed2                       0x00005c3c   Section        0  main.o(i.vTaskRetornoLed2)
    i.vTaskSetTimeOutState                   0x00005c68   Section        0  tasks.o(i.vTaskSetTimeOutState)
    i.vTaskStartScheduler                    0x00005c88   Section        0  tasks.o(i.vTaskStartScheduler)
    i.vTaskSuspend                           0x00005d90   Section        0  tasks.o(i.vTaskSuspend)
    i.vTaskSuspendAll                        0x00005ec4   Section        0  tasks.o(i.vTaskSuspendAll)
    i.vTaskSwitchContext                     0x00005ed4   Section        0  tasks.o(i.vTaskSwitchContext)
    i.vUDPServer                             0x00005f4c   Section        0  main.o(i.vUDPServer)
    vUDPServer                               0x00005f4d   Thumb Code   114  main.o(i.vUDPServer)
    i.vWakeUpSocketUser                      0x00005fc8   Section        0  freertos_sockets.o(i.vWakeUpSocketUser)
    i.write_PHY                              0x00005fe2   Section        0  lpc17xx_emac.o(i.write_PHY)
    write_PHY                                0x00005fe3   Thumb Code    54  lpc17xx_emac.o(i.write_PHY)
    i.xEventGroupCreate                      0x00006018   Section        0  event_groups.o(i.xEventGroupCreate)
    i.xEventGroupSetBits                     0x00006034   Section        0  event_groups.o(i.xEventGroupSetBits)
    i.xEventGroupWaitBits                    0x000060a0   Section        0  event_groups.o(i.xEventGroupWaitBits)
    i.xIPIsNetworkTaskReady                  0x0000615c   Section        0  freertos_ip.o(i.xIPIsNetworkTaskReady)
    i.xIsCallingFromIPTask                   0x00006168   Section        0  freertos_ip.o(i.xIsCallingFromIPTask)
    i.xNetworkBuffersInitialise              0x00006184   Section        0  bufferallocation_2.o(i.xNetworkBuffersInitialise)
    i.xNetworkInterfaceInitialise            0x00006214   Section        0  networkhal.o(i.xNetworkInterfaceInitialise)
    i.xNetworkInterfaceOutput                0x00006228   Section        0  networkhal.o(i.xNetworkInterfaceOutput)
    i.xPortStartScheduler                    0x00006244   Section        0  port.o(i.xPortStartScheduler)
    i.xPortSysTickHandler                    0x00006274   Section        0  port.o(i.xPortSysTickHandler)
    i.xProcessReceivedTCPPacket              0x000062a0   Section        0  freertos_tcp_ip.o(i.xProcessReceivedTCPPacket)
    i.xProcessReceivedUDPPacket              0x00006406   Section        0  freertos_udp_ip.o(i.xProcessReceivedUDPPacket)
    i.xQueueCreateCountingSemaphore          0x00006484   Section        0  queue.o(i.xQueueCreateCountingSemaphore)
    i.xQueueCreateMutex                      0x00006498   Section        0  queue.o(i.xQueueCreateMutex)
    i.xQueueGenericCreate                    0x000064bc   Section        0  queue.o(i.xQueueGenericCreate)
    i.xQueueGenericCreateStatic              0x0000652c   Section        0  queue.o(i.xQueueGenericCreateStatic)
    i.xQueueGenericSend                      0x00006590   Section        0  queue.o(i.xQueueGenericSend)
    i.xQueueGenericSendFromISR               0x00006700   Section        0  queue.o(i.xQueueGenericSendFromISR)
    i.xQueueGiveFromISR                      0x000067c8   Section        0  queue.o(i.xQueueGiveFromISR)
    i.xQueueReceive                          0x0000681c   Section        0  queue.o(i.xQueueReceive)
    i.xQueueSemaphoreTake                    0x00006930   Section        0  queue.o(i.xQueueSemaphoreTake)
    i.xSendEventStructToIPTask               0x00006a78   Section        0  freertos_ip.o(i.xSendEventStructToIPTask)
    i.xSendEventToIPTask                     0x00006b08   Section        0  freertos_ip.o(i.xSendEventToIPTask)
    i.xTCPCheckNewClient                     0x00006b20   Section        0  freertos_tcp_ip.o(i.xTCPCheckNewClient)
    i.xTCPSocketCheck                        0x00006b70   Section        0  freertos_tcp_ip.o(i.xTCPSocketCheck)
    i.xTCPTimerCheck                         0x00006bb4   Section        0  freertos_sockets.o(i.xTCPTimerCheck)
    i.xTCPWindowRxEmpty                      0x00006c54   Section        0  freertos_tcp_win.o(i.xTCPWindowRxEmpty)
    i.xTCPWindowTxDone                       0x00006c64   Section        0  freertos_tcp_win.o(i.xTCPWindowTxDone)
    i.xTCPWindowTxHasData                    0x00006c72   Section        0  freertos_tcp_win.o(i.xTCPWindowTxHasData)
    i.xTaskCheckForTimeOut                   0x00006cd4   Section        0  tasks.o(i.xTaskCheckForTimeOut)
    i.xTaskCreate                            0x00006d30   Section        0  tasks.o(i.xTaskCreate)
    i.xTaskCreateStatic                      0x00006df2   Section        0  tasks.o(i.xTaskCreateStatic)
    i.xTaskGenericNotify                     0x00006eac   Section        0  tasks.o(i.xTaskGenericNotify)
    i.xTaskGetCurrentTaskHandle              0x00006f50   Section        0  tasks.o(i.xTaskGetCurrentTaskHandle)
    i.xTaskGetSchedulerState                 0x00006f5c   Section        0  tasks.o(i.xTaskGetSchedulerState)
    i.xTaskGetTickCount                      0x00006f78   Section        0  tasks.o(i.xTaskGetTickCount)
    i.xTaskIncrementTick                     0x00006f84   Section        0  tasks.o(i.xTaskIncrementTick)
    i.xTaskPriorityDisinherit                0x00007058   Section        0  tasks.o(i.xTaskPriorityDisinherit)
    i.xTaskPriorityInherit                   0x000070d4   Section        0  tasks.o(i.xTaskPriorityInherit)
    i.xTaskRemoveFromEventList               0x00007164   Section        0  tasks.o(i.xTaskRemoveFromEventList)
    i.xTaskResumeAll                         0x000071c8   Section        0  tasks.o(i.xTaskResumeAll)
    i.xTimerCreate                           0x00007358   Section        0  timers.o(i.xTimerCreate)
    i.xTimerCreateTimerTask                  0x000073e4   Section        0  timers.o(i.xTimerCreateTimerTask)
    i.xTimerGenericCommand                   0x00007474   Section        0  timers.o(i.xTimerGenericCommand)
    .constdata                               0x000074d8   Section        4  main.o(.constdata)
    xReceiveTimeOut                          0x000074d8   Data           4  main.o(.constdata)
    .constdata                               0x000074dc   Section       24  freertos_ip.o(.constdata)
    xNetworkDownEvent                        0x000074e4   Data           8  freertos_ip.o(.constdata)
    xNetworkDownEvent                        0x000074ec   Data           8  freertos_ip.o(.constdata)
    .constdata                               0x000074f4   Section        8  freertos_sockets.o(.constdata)
    .constdata                               0x000074fc   Section       38  freertos_arp.o(.constdata)
    xDefaultPartARPPacketHeader              0x000074fc   Data          38  freertos_arp.o(.constdata)
    .constdata                               0x00007524   Section        4  bufferallocation_2.o(.constdata)
    .constdata                               0x00007528   Section       10  lpc17xx_emac.o(.constdata)
    .bss                                     0x10000000   Section    32768  heap_4.o(.bss)
    ucHeap                                   0x10000000   Data       32768  heap_4.o(.bss)
    .data                                    0x2007c000   Section       52  main.o(.data)
    blinkTmr                                 0x2007c000   Data           4  main.o(.data)
    xTask                                    0x2007c004   Data           4  main.o(.data)
    mutexADC                                 0x2007c008   Data           4  main.o(.data)
    Potenciometro                            0x2007c00c   Data           4  main.o(.data)
    ip                                       0x2007c010   Data           4  main.o(.data)
    mask                                     0x2007c014   Data           4  main.o(.data)
    gateway                                  0x2007c018   Data           4  main.o(.data)
    dns                                      0x2007c01c   Data           4  main.o(.data)
    .data                                    0x2007c034   Section        4  system_lpc17xx.o(.data)
    .data                                    0x2007c038   Section        4  port.o(.data)
    uxCriticalNesting                        0x2007c038   Data           4  port.o(.data)
    .data                                    0x2007c03c   Section       60  tasks.o(.data)
    uxDeletedTasksWaitingCleanUp             0x2007c040   Data           4  tasks.o(.data)
    uxCurrentNumberOfTasks                   0x2007c044   Data           4  tasks.o(.data)
    xTickCount                               0x2007c048   Data           4  tasks.o(.data)
    uxTopReadyPriority                       0x2007c04c   Data           4  tasks.o(.data)
    xSchedulerRunning                        0x2007c050   Data           4  tasks.o(.data)
    xPendedTicks                             0x2007c054   Data           4  tasks.o(.data)
    xYieldPending                            0x2007c058   Data           4  tasks.o(.data)
    xNumOfOverflows                          0x2007c05c   Data           4  tasks.o(.data)
    uxTaskNumber                             0x2007c060   Data           4  tasks.o(.data)
    xNextTaskUnblockTime                     0x2007c064   Data           4  tasks.o(.data)
    xIdleTaskHandle                          0x2007c068   Data           4  tasks.o(.data)
    uxSchedulerSuspended                     0x2007c06c   Data           4  tasks.o(.data)
    pxDelayedTaskList                        0x2007c070   Data           4  tasks.o(.data)
    pxOverflowDelayedTaskList                0x2007c074   Data           4  tasks.o(.data)
    .data                                    0x2007c078   Section       20  timers.o(.data)
    xTimerQueue                              0x2007c078   Data           4  timers.o(.data)
    xTimerTaskHandle                         0x2007c07c   Data           4  timers.o(.data)
    xLastTime                                0x2007c080   Data           4  timers.o(.data)
    pxCurrentTimerList                       0x2007c084   Data           4  timers.o(.data)
    pxOverflowTimerList                      0x2007c088   Data           4  timers.o(.data)
    .data                                    0x2007c08c   Section       40  freertos_ip.o(.data)
    xNetworkDownEventPending                 0x2007c098   Data           4  freertos_ip.o(.data)
    xIPTaskHandle                            0x2007c09c   Data           4  freertos_ip.o(.data)
    xProcessedTCPMessage                     0x2007c0a0   Data           4  freertos_ip.o(.data)
    xNetworkUp                               0x2007c0a4   Data           4  freertos_ip.o(.data)
    xIPTaskInitialised                       0x2007c0a8   Data           4  freertos_ip.o(.data)
    xStart                                   0x2007c0ac   Data           4  freertos_ip.o(.data)
    xCallEventHook                           0x2007c0b0   Data           4  freertos_ip.o(.data)
    .data                                    0x2007c0b4   Section        8  freertos_sockets.o(.data)
    usNextPortToUse                          0x2007c0b4   Data           4  freertos_sockets.o(.data)
    xLastTime                                0x2007c0b8   Data           4  freertos_sockets.o(.data)
    .data                                    0x2007c0bc   Section       32  heap_4.o(.data)
    pxEnd                                    0x2007c0bc   Data           4  heap_4.o(.data)
    xFreeBytesRemaining                      0x2007c0c0   Data           4  heap_4.o(.data)
    xMinimumEverFreeBytesRemaining           0x2007c0c4   Data           4  heap_4.o(.data)
    xNumberOfSuccessfulAllocations           0x2007c0c8   Data           4  heap_4.o(.data)
    xNumberOfSuccessfulFrees                 0x2007c0cc   Data           4  heap_4.o(.data)
    xBlockAllocatedBit                       0x2007c0d0   Data           4  heap_4.o(.data)
    xStart                                   0x2007c0d4   Data           8  heap_4.o(.data)
    .data                                    0x2007c0dc   Section        4  freertos_arp.o(.data)
    xLastGratuitousARPTime                   0x2007c0dc   Data           4  freertos_arp.o(.data)
    .data                                    0x2007c0e0   Section        4  freertos_tcp_ip.o(.data)
    .data                                    0x2007c0e4   Section        4  freertos_tcp_win.o(.data)
    .data                                    0x2007c0e8   Section       24  freertos_udp_ip.o(.data)
    .data                                    0x2007c100   Section        8  bufferallocation_2.o(.data)
    uxMinimumFreeNetworkBuffers              0x2007c100   Data           4  bufferallocation_2.o(.data)
    xNetworkBufferSemaphore                  0x2007c104   Data           4  bufferallocation_2.o(.data)
    .data                                    0x2007c108   Section        4  networkhal.o(.data)
    .bss                                     0x2007c10c   Section     2048  main.o(.bss)
    udpServerRxBuffer                        0x2007c10c   Data        1024  main.o(.bss)
    aesBuf                                   0x2007c50c   Data        1024  main.o(.bss)
    .bss                                     0x2007c90c   Section      200  tasks.o(.bss)
    pxReadyTasksLists                        0x2007c90c   Data         100  tasks.o(.bss)
    xDelayedTaskList1                        0x2007c970   Data          20  tasks.o(.bss)
    xDelayedTaskList2                        0x2007c984   Data          20  tasks.o(.bss)
    xPendingReadyList                        0x2007c998   Data          20  tasks.o(.bss)
    xTasksWaitingTermination                 0x2007c9ac   Data          20  tasks.o(.bss)
    xSuspendedTaskList                       0x2007c9c0   Data          20  tasks.o(.bss)
    .bss                                     0x2007c9d4   Section      400  timers.o(.bss)
    xStaticTimerQueue                        0x2007c9d4   Data          72  timers.o(.bss)
    ucStaticTimerQueueStorage                0x2007ca1c   Data         288  timers.o(.bss)
    xActiveTimerList1                        0x2007cb3c   Data          20  timers.o(.bss)
    xActiveTimerList2                        0x2007cb50   Data          20  timers.o(.bss)
    .bss                                     0x2007cb64   Section       80  freertos_ip.o(.bss)
    xARPTimer                                0x2007cb8c   Data          20  freertos_ip.o(.bss)
    xTCPTimer                                0x2007cba0   Data          20  freertos_ip.o(.bss)
    .bss                                     0x2007cbb4   Section       40  freertos_sockets.o(.bss)
    .bss                                     0x2007cbdc   Section     1472  freertosappstaticalloc.o(.bss)
    xIdleTaskTCB                             0x2007cbdc   Data          80  freertosappstaticalloc.o(.bss)
    uxIdleTaskStack                          0x2007cc2c   Data         512  freertosappstaticalloc.o(.bss)
    xTimerTaskTCB                            0x2007ce2c   Data          80  freertosappstaticalloc.o(.bss)
    uxTimerTaskStack                         0x2007ce7c   Data         800  freertosappstaticalloc.o(.bss)
    .bss                                     0x2007d19c   Section       72  freertos_arp.o(.bss)
    xARPCache                                0x2007d19c   Data          72  freertos_arp.o(.bss)
    .bss                                     0x2007d1e4   Section      200  bufferallocation_2.o(.bss)
    xFreeBuffersList                         0x2007d1e4   Data          20  bufferallocation_2.o(.bss)
    xNetworkBufferDescriptors                0x2007d1f8   Data         180  bufferallocation_2.o(.bss)
    .bss                                     0x2007d2b0   Section     5476  lpc17xx_emac.o(.bss)
    Rx_Desc                                  0x2007d2b0   Data          32  lpc17xx_emac.o(.bss)
    Rx_Stat                                  0x2007d2d0   Data          32  lpc17xx_emac.o(.bss)
    Tx_Desc                                  0x2007d2f0   Data          24  lpc17xx_emac.o(.bss)
    Tx_Stat                                  0x2007d308   Data          12  lpc17xx_emac.o(.bss)
    rx_buf                                   0x2007d314   Data        3072  lpc17xx_emac.o(.bss)
    tx_buf                                   0x2007df14   Data        2304  lpc17xx_emac.o(.bss)
    .bss                                     0x2007e814   Section       96  libspace.o(.bss)
    HEAP                                     0x2007e878   Section        0  startup_mps_cm3.o(HEAP)
    STACK                                    0x2007e878   Section      512  startup_mps_cm3.o(STACK)
    Heap_Mem                                 0x2007e878   Data           0  startup_mps_cm3.o(HEAP)
    Stack_Mem                                0x2007e878   Data         512  startup_mps_cm3.o(STACK)
    __initial_sp                             0x2007ea78   Data           0  startup_mps_cm3.o(STACK)

    Global Symbols

    Symbol Name                              Value     Ov Type        Size  Object(Section)

    BuildAttributes$$THM_ISAv4$P$D$K$B$S$PE$A:L22UL41UL21$X:L11$S22US41US21$IEEE1$IW$USESV6$~STKCKD$USESV7$~SHL$OTIME$ROPI$EBA8$UX$STANDARDLIB$REQ8$PRES8$EABIv2 0x00000000   Number         0  anon$$obj.o ABSOLUTE
    __ARM_use_no_argv                        0x00000000   Number         0  main.o ABSOLUTE
    __Vectors                                0x00000000   Data           4  startup_mps_cm3.o(RESET)
    __ARM_exceptions_init                     - Undefined Weak Reference
    __alloca_initialize                       - Undefined Weak Reference
    __arm_preinit_                            - Undefined Weak Reference
    __cpp_initialize__aeabi_                  - Undefined Weak Reference
    __cxa_finalize                            - Undefined Weak Reference
    __rt_locale                               - Undefined Weak Reference
    __sigvec_lookup                           - Undefined Weak Reference
    _atexit_init                              - Undefined Weak Reference
    _call_atexit_fns                          - Undefined Weak Reference
    _clock_init                               - Undefined Weak Reference
    _fp_trap_init                             - Undefined Weak Reference
    _fp_trap_shutdown                         - Undefined Weak Reference
    _get_lc_collate                           - Undefined Weak Reference
    _get_lc_ctype                             - Undefined Weak Reference
    _get_lc_monetary                          - Undefined Weak Reference
    _get_lc_numeric                           - Undefined Weak Reference
    _get_lc_time                              - Undefined Weak Reference
    _getenv_init                              - Undefined Weak Reference
    _handle_redirection                       - Undefined Weak Reference
    _init_alloc                               - Undefined Weak Reference
    _init_user_alloc                          - Undefined Weak Reference
    _initio                                   - Undefined Weak Reference
    _printf_mbtowc                            - Undefined Weak Reference
    _printf_post_padding                      - Undefined Weak Reference
    _printf_pre_padding                       - Undefined Weak Reference
    _printf_truncate_signed                   - Undefined Weak Reference
    _printf_truncate_unsigned                 - Undefined Weak Reference
    _rand_init                                - Undefined Weak Reference
    _signal_finish                            - Undefined Weak Reference
    _signal_init                              - Undefined Weak Reference
    _terminate_alloc                          - Undefined Weak Reference
    _terminate_user_alloc                     - Undefined Weak Reference
    _terminateio                              - Undefined Weak Reference
    __main                                   0x000000cd   Thumb Code     8  __main.o(!!!main)
    __scatterload                            0x000000d5   Thumb Code     0  __scatter.o(!!!scatter)
    __scatterload_rt2                        0x000000d5   Thumb Code    44  __scatter.o(!!!scatter)
    __scatterload_rt2_thumb_only             0x000000d5   Thumb Code     0  __scatter.o(!!!scatter)
    __scatterload_null                       0x000000e3   Thumb Code     0  __scatter.o(!!!scatter)
    __scatterload_copy                       0x00000109   Thumb Code    26  __scatter_copy.o(!!handler_copy)
    __scatterload_zeroinit                   0x00000125   Thumb Code    28  __scatter_zi.o(!!handler_zi)
    _printf_percent                          0x00000141   Thumb Code     0  _printf_percent.o(.ARM.Collect$$_printf_percent$$00000000)
    _printf_u                                0x00000141   Thumb Code     0  _printf_u.o(.ARM.Collect$$_printf_percent$$0000000A)
    _printf_percent_end                      0x00000147   Thumb Code     0  _printf_percent_end.o(.ARM.Collect$$_printf_percent$$00000017)
    __rt_lib_init                            0x0000014b   Thumb Code     0  libinit.o(.ARM.Collect$$libinit$$00000000)
    __rt_lib_init_alloca_1                   0x0000014d   Thumb Code     0  libinit2.o(.ARM.Collect$$libinit$$0000002E)
    __rt_lib_init_argv_1                     0x0000014d   Thumb Code     0  libinit2.o(.ARM.Collect$$libinit$$0000002C)
    __rt_lib_init_atexit_1                   0x0000014d   Thumb Code     0  libinit2.o(.ARM.Collect$$libinit$$0000001B)
    __rt_lib_init_clock_1                    0x0000014d   Thumb Code     0  libinit2.o(.ARM.Collect$$libinit$$00000021)
    __rt_lib_init_cpp_1                      0x0000014d   Thumb Code     0  libinit2.o(.ARM.Collect$$libinit$$00000032)
    __rt_lib_init_exceptions_1               0x0000014d   Thumb Code     0  libinit2.o(.ARM.Collect$$libinit$$00000030)
    __rt_lib_init_fp_1                       0x0000014d   Thumb Code     0  libinit2.o(.ARM.Collect$$libinit$$00000002)
    __rt_lib_init_fp_trap_1                  0x0000014d   Thumb Code     0  libinit2.o(.ARM.Collect$$libinit$$0000001F)
    __rt_lib_init_getenv_1                   0x0000014d   Thumb Code     0  libinit2.o(.ARM.Collect$$libinit$$00000023)
    __rt_lib_init_heap_1                     0x0000014d   Thumb Code     0  libinit2.o(.ARM.Collect$$libinit$$0000000A)
    __rt_lib_init_lc_collate_1               0x0000014d   Thumb Code     0  libinit2.o(.ARM.Collect$$libinit$$00000011)
    __rt_lib_init_lc_ctype_1                 0x0000014d   Thumb Code     0  libinit2.o(.ARM.Collect$$libinit$$00000013)
    __rt_lib_init_lc_monetary_1              0x0000014d   Thumb Code     0  libinit2.o(.ARM.Collect$$libinit$$00000015)
    __rt_lib_init_lc_numeric_1               0x0000014d   Thumb Code     0  libinit2.o(.ARM.Collect$$libinit$$00000017)
    __rt_lib_init_lc_time_1                  0x0000014d   Thumb Code     0  libinit2.o(.ARM.Collect$$libinit$$00000019)
    __rt_lib_init_preinit_1                  0x0000014d   Thumb Code     0  libinit2.o(.ARM.Collect$$libinit$$00000004)
    __rt_lib_init_rand_1                     0x0000014d   Thumb Code     0  libinit2.o(.ARM.Collect$$libinit$$0000000E)
    __rt_lib_init_return                     0x0000014d   Thumb Code     0  libinit2.o(.ARM.Collect$$libinit$$00000033)
    __rt_lib_init_signal_1                   0x0000014d   Thumb Code     0  libinit2.o(.ARM.Collect$$libinit$$0000001D)
    __rt_lib_init_stdio_1                    0x0000014d   Thumb Code     0  libinit2.o(.ARM.Collect$$libinit$$00000025)
    __rt_lib_init_user_alloc_1               0x0000014d   Thumb Code     0  libinit2.o(.ARM.Collect$$libinit$$0000000C)
    __rt_lib_shutdown                        0x0000014f   Thumb Code     0  libshutdown.o(.ARM.Collect$$libshutdown$$00000000)
    __rt_lib_shutdown_cpp_1                  0x00000151   Thumb Code     0  libshutdown2.o(.ARM.Collect$$libshutdown$$00000002)
    __rt_lib_shutdown_fp_trap_1              0x00000151   Thumb Code     0  libshutdown2.o(.ARM.Collect$$libshutdown$$00000007)
    __rt_lib_shutdown_heap_1                 0x00000151   Thumb Code     0  libshutdown2.o(.ARM.Collect$$libshutdown$$0000000F)
    __rt_lib_shutdown_return                 0x00000151   Thumb Code     0  libshutdown2.o(.ARM.Collect$$libshutdown$$00000010)
    __rt_lib_shutdown_signal_1               0x00000151   Thumb Code     0  libshutdown2.o(.ARM.Collect$$libshutdown$$0000000A)
    __rt_lib_shutdown_stdio_1                0x00000151   Thumb Code     0  libshutdown2.o(.ARM.Collect$$libshutdown$$00000004)
    __rt_lib_shutdown_user_alloc_1           0x00000151   Thumb Code     0  libshutdown2.o(.ARM.Collect$$libshutdown$$0000000C)
    __rt_entry                               0x00000153   Thumb Code     0  __rtentry.o(.ARM.Collect$$rtentry$$00000000)
    __rt_entry_presh_1                       0x00000153   Thumb Code     0  __rtentry2.o(.ARM.Collect$$rtentry$$00000002)
    __rt_entry_sh                            0x00000153   Thumb Code     0  __rtentry4.o(.ARM.Collect$$rtentry$$00000004)
    __rt_entry_li                            0x00000159   Thumb Code     0  __rtentry2.o(.ARM.Collect$$rtentry$$0000000A)
    __rt_entry_postsh_1                      0x00000159   Thumb Code     0  __rtentry2.o(.ARM.Collect$$rtentry$$00000009)
    __rt_entry_main                          0x0000015d   Thumb Code     0  __rtentry2.o(.ARM.Collect$$rtentry$$0000000D)
    __rt_entry_postli_1                      0x0000015d   Thumb Code     0  __rtentry2.o(.ARM.Collect$$rtentry$$0000000C)
    __rt_exit                                0x00000165   Thumb Code     0  rtexit.o(.ARM.Collect$$rtexit$$00000000)
    __rt_exit_ls                             0x00000167   Thumb Code     0  rtexit2.o(.ARM.Collect$$rtexit$$00000003)
    __rt_exit_prels_1                        0x00000167   Thumb Code     0  rtexit2.o(.ARM.Collect$$rtexit$$00000002)
    __rt_exit_exit                           0x0000016b   Thumb Code     0  rtexit2.o(.ARM.Collect$$rtexit$$00000004)
    vPortSVCHandler                          0x00000171   Thumb Code    32  port.o(.emb_text)
    __asm___6_port_c_39a90d8d__prvStartFirstTask 0x00000195   Thumb Code    28  port.o(.emb_text)
    xPortPendSVHandler                       0x000001b5   Thumb Code    72  port.o(.emb_text)
    vPortGetIPSR                             0x00000201   Thumb Code     6  port.o(.emb_text)
    Reset_Handler                            0x00000209   Thumb Code     4  startup_mps_cm3.o(.text)
    NMI_Handler                              0x0000020d   Thumb Code     2  startup_mps_cm3.o(.text)
    HardFault_Handler                        0x0000020f   Thumb Code     2  startup_mps_cm3.o(.text)
    MemManage_Handler                        0x00000211   Thumb Code     2  startup_mps_cm3.o(.text)
    BusFault_Handler                         0x00000213   Thumb Code     2  startup_mps_cm3.o(.text)
    UsageFault_Handler                       0x00000215   Thumb Code     2  startup_mps_cm3.o(.text)
    SVC_Handler                              0x00000217   Thumb Code     2  startup_mps_cm3.o(.text)
    DebugMon_Handler                         0x00000219   Thumb Code     2  startup_mps_cm3.o(.text)
    PendSV_Handler                           0x0000021b   Thumb Code     2  startup_mps_cm3.o(.text)
    SysTick_Handler                          0x0000021d   Thumb Code     2  startup_mps_cm3.o(.text)
    ADC_IRQHandler                           0x0000021f   Thumb Code     0  startup_mps_cm3.o(.text)
    BOD_IRQHandler                           0x0000021f   Thumb Code     0  startup_mps_cm3.o(.text)
    CANActivity_IRQHandler                   0x0000021f   Thumb Code     0  startup_mps_cm3.o(.text)
    CAN_IRQHandler                           0x0000021f   Thumb Code     0  startup_mps_cm3.o(.text)
    DMA_IRQHandler                           0x0000021f   Thumb Code     0  startup_mps_cm3.o(.text)
    EINT0_IRQHandler                         0x0000021f   Thumb Code     0  startup_mps_cm3.o(.text)
    EINT1_IRQHandler                         0x0000021f   Thumb Code     0  startup_mps_cm3.o(.text)
    EINT2_IRQHandler                         0x0000021f   Thumb Code     0  startup_mps_cm3.o(.text)
    EINT3_IRQHandler                         0x0000021f   Thumb Code     0  startup_mps_cm3.o(.text)
    I2C0_IRQHandler                          0x0000021f   Thumb Code     0  startup_mps_cm3.o(.text)
    I2C1_IRQHandler                          0x0000021f   Thumb Code     0  startup_mps_cm3.o(.text)
    I2C2_IRQHandler                          0x0000021f   Thumb Code     0  startup_mps_cm3.o(.text)
    I2S_IRQHandler                           0x0000021f   Thumb Code     0  startup_mps_cm3.o(.text)
    MCPWM_IRQHandler                         0x0000021f   Thumb Code     0  startup_mps_cm3.o(.text)
    PLL0_IRQHandler                          0x0000021f   Thumb Code     0  startup_mps_cm3.o(.text)
    PLL1_IRQHandler                          0x0000021f   Thumb Code     0  startup_mps_cm3.o(.text)
    PWM1_IRQHandler                          0x0000021f   Thumb Code     0  startup_mps_cm3.o(.text)
    QEI_IRQHandler                           0x0000021f   Thumb Code     0  startup_mps_cm3.o(.text)
    RIT_IRQHandler                           0x0000021f   Thumb Code     0  startup_mps_cm3.o(.text)
    RTC_IRQHandler                           0x0000021f   Thumb Code     0  startup_mps_cm3.o(.text)
    SPI_IRQHandler                           0x0000021f   Thumb Code     0  startup_mps_cm3.o(.text)
    SSP0_IRQHandler                          0x0000021f   Thumb Code     0  startup_mps_cm3.o(.text)
    SSP1_IRQHandler                          0x0000021f   Thumb Code     0  startup_mps_cm3.o(.text)
    TIMER0_IRQHandler                        0x0000021f   Thumb Code     0  startup_mps_cm3.o(.text)
    TIMER1_IRQHandler                        0x0000021f   Thumb Code     0  startup_mps_cm3.o(.text)
    TIMER2_IRQHandler                        0x0000021f   Thumb Code     0  startup_mps_cm3.o(.text)
    TIMER3_IRQHandler                        0x0000021f   Thumb Code     0  startup_mps_cm3.o(.text)
    UART0_IRQHandler                         0x0000021f   Thumb Code     0  startup_mps_cm3.o(.text)
    UART1_IRQHandler                         0x0000021f   Thumb Code     0  startup_mps_cm3.o(.text)
    UART2_IRQHandler                         0x0000021f   Thumb Code     0  startup_mps_cm3.o(.text)
    UART3_IRQHandler                         0x0000021f   Thumb Code     0  startup_mps_cm3.o(.text)
    USBActivity_IRQHandler                   0x0000021f   Thumb Code     0  startup_mps_cm3.o(.text)
    USB_IRQHandler                           0x0000021f   Thumb Code     0  startup_mps_cm3.o(.text)
    WDT_IRQHandler                           0x0000021f   Thumb Code     0  startup_mps_cm3.o(.text)
    __user_initial_stackheap                 0x00000221   Thumb Code     0  startup_mps_cm3.o(.text)
    __aeabi_uldivmod                         0x0000023d   Thumb Code     0  lludivv7m.o(.text)
    _ll_udiv                                 0x0000023d   Thumb Code   238  lludivv7m.o(.text)
    __2sprintf                               0x0000032d   Thumb Code    34  noretval__2sprintf.o(.text)
    __printf                                 0x00000355   Thumb Code   104  __printf.o(.text)
    _printf_int_dec                          0x000003bd   Thumb Code   104  _printf_dec.o(.text)
    memcmp                                   0x00000435   Thumb Code    88  memcmp.o(.text)
    strlen                                   0x0000048d   Thumb Code    62  strlen.o(.text)
    __aeabi_memcpy                           0x000004cb   Thumb Code     0  rt_memcpy_v6.o(.text)
    __rt_memcpy                              0x000004cb   Thumb Code   138  rt_memcpy_v6.o(.text)
    _memcpy_lastbytes                        0x00000531   Thumb Code     0  rt_memcpy_v6.o(.text)
    __aeabi_memmove                          0x00000555   Thumb Code     0  rt_memmove_v6.o(.text)
    __rt_memmove                             0x00000555   Thumb Code   132  rt_memmove_v6.o(.text)
    __memmove_lastfew                        0x000005b5   Thumb Code     0  rt_memmove_v6.o(.text)
    __aeabi_memcpy4                          0x000005d9   Thumb Code     0  rt_memcpy_w.o(.text)
    __aeabi_memcpy8                          0x000005d9   Thumb Code     0  rt_memcpy_w.o(.text)
    __rt_memcpy_w                            0x000005d9   Thumb Code   100  rt_memcpy_w.o(.text)
    _memcpy_lastbytes_aligned                0x00000621   Thumb Code     0  rt_memcpy_w.o(.text)
    __aeabi_memset                           0x0000063d   Thumb Code    16  aeabi_memset.o(.text)
    __aeabi_memclr                           0x0000064d   Thumb Code     0  rt_memclr.o(.text)
    __rt_memclr                              0x0000064d   Thumb Code    68  rt_memclr.o(.text)
    _memset                                  0x00000651   Thumb Code     0  rt_memclr.o(.text)
    __aeabi_memclr4                          0x00000691   Thumb Code     0  rt_memclr_w.o(.text)
    __aeabi_memclr8                          0x00000691   Thumb Code     0  rt_memclr_w.o(.text)
    __rt_memclr_w                            0x00000691   Thumb Code    78  rt_memclr_w.o(.text)
    _memset_w                                0x00000695   Thumb Code     0  rt_memclr_w.o(.text)
    __use_two_region_memory                  0x000006df   Thumb Code     2  heapauxi.o(.text)
    __rt_heap_escrow$2region                 0x000006e1   Thumb Code     2  heapauxi.o(.text)
    __rt_heap_expand$2region                 0x000006e3   Thumb Code     2  heapauxi.o(.text)
    _printf_int_common                       0x000006e5   Thumb Code   178  _printf_intcommon.o(.text)
    _printf_char_common                      0x000007a3   Thumb Code    32  _printf_char_common.o(.text)
    _sputc                                   0x000007c9   Thumb Code    10  _sputc.o(.text)
    __aeabi_memmove4                         0x000007d3   Thumb Code     0  rt_memmove_w.o(.text)
    __aeabi_memmove8                         0x000007d3   Thumb Code     0  rt_memmove_w.o(.text)
    __rt_memmove_w                           0x000007d3   Thumb Code   122  rt_memmove_w.o(.text)
    __memmove_aligned                        0x000007f9   Thumb Code     0  rt_memmove_w.o(.text)
    __memmove_lastfew_aligned                0x00000831   Thumb Code     0  rt_memmove_w.o(.text)
    __user_setup_stackheap                   0x0000084d   Thumb Code    74  sys_stackheap_outer.o(.text)
    exit                                     0x00000897   Thumb Code    18  exit.o(.text)
    __user_libspace                          0x000008a9   Thumb Code     8  libspace.o(.text)
    __user_perproc_libspace                  0x000008a9   Thumb Code     0  libspace.o(.text)
    __user_perthread_libspace                0x000008a9   Thumb Code     0  libspace.o(.text)
    _sys_exit                                0x000008b1   Thumb Code     8  sys_exit.o(.text)
    __I$use$semihosting                      0x000008bd   Thumb Code     0  use_no_semi.o(.text)
    __use_no_semihosting_swi                 0x000008bd   Thumb Code     2  use_no_semi.o(.text)
    __semihosting_library_function           0x000008bf   Thumb Code     0  indicate_semi.o(.text)
    ADC_ChannelCmd                           0x000008c1   Thumb Code    46  lpc17xx_adc.o(i.ADC_ChannelCmd)
    ADC_ChannelGetData                       0x00000915   Thumb Code    38  lpc17xx_adc.o(i.ADC_ChannelGetData)
    ADC_ChannelGetStatus                     0x00000961   Thumb Code    72  lpc17xx_adc.o(i.ADC_ChannelGetStatus)
    ADC_Init                                 0x000009cd   Thumb Code    86  lpc17xx_adc.o(i.ADC_Init)
    ADC_StartCmd                             0x00000a4d   Thumb Code    84  lpc17xx_adc.o(i.ADC_StartCmd)
    CLKPWR_ConfigPPWR                        0x00000ac5   Thumb Code    40  lpc17xx_clkpwr.o(i.CLKPWR_ConfigPPWR)
    CLKPWR_GetPCLK                           0x00000af5   Thumb Code    54  lpc17xx_clkpwr.o(i.CLKPWR_GetPCLK)
    EMAC_CheckReceiveDataStatus              0x00000b35   Thumb Code    24  lpc17xx_emac.o(i.EMAC_CheckReceiveDataStatus)
    EMAC_CheckReceiveIndex                   0x00000b55   Thumb Code    24  lpc17xx_emac.o(i.EMAC_CheckReceiveIndex)
    EMAC_CheckTransmitIndex                  0x00000b71   Thumb Code    26  lpc17xx_emac.o(i.EMAC_CheckTransmitIndex)
    EMAC_GetReceiveDataSize                  0x00000b91   Thumb Code    16  lpc17xx_emac.o(i.EMAC_GetReceiveDataSize)
    EMAC_Init                                0x00000ba9   Thumb Code   290  lpc17xx_emac.o(i.EMAC_Init)
    EMAC_ReadPacketBuffer                    0x00000ce5   Thumb Code    38  lpc17xx_emac.o(i.EMAC_ReadPacketBuffer)
    EMAC_SetPHYMode                          0x00000d15   Thumb Code   184  lpc17xx_emac.o(i.EMAC_SetPHYMode)
    EMAC_UpdatePHYStatus                     0x00000dd1   Thumb Code   118  lpc17xx_emac.o(i.EMAC_UpdatePHYStatus)
    EMAC_UpdateRxConsumeIndex                0x00000e4d   Thumb Code    20  lpc17xx_emac.o(i.EMAC_UpdateRxConsumeIndex)
    EMAC_UpdateTxProduceIndex                0x00000e65   Thumb Code    20  lpc17xx_emac.o(i.EMAC_UpdateTxProduceIndex)
    EMAC_WritePacketBuffer                   0x00000e7d   Thumb Code    50  lpc17xx_emac.o(i.EMAC_WritePacketBuffer)
    ENET_IRQHandler                          0x00000eb9   Thumb Code    80  networkhal.o(i.ENET_IRQHandler)
    FreeRTOS_IPInit                          0x00000f15   Thumb Code   254  freertos_ip.o(i.FreeRTOS_IPInit)
    FreeRTOS_NetworkDown                     0x00001035   Thumb Code    32  freertos_ip.o(i.FreeRTOS_NetworkDown)
    FreeRTOS_OutputARPRequest                0x0000105d   Thumb Code    34  freertos_arp.o(i.FreeRTOS_OutputARPRequest)
    FreeRTOS_bind                            0x0000107f   Thumb Code   126  freertos_sockets.o(i.FreeRTOS_bind)
    FreeRTOS_closesocket                     0x000010fd   Thumb Code    48  freertos_sockets.o(i.FreeRTOS_closesocket)
    FreeRTOS_outstanding                     0x0000112d   Thumb Code    40  freertos_sockets.o(i.FreeRTOS_outstanding)
    FreeRTOS_recvfrom                        0x00001155   Thumb Code   230  freertos_sockets.o(i.FreeRTOS_recvfrom)
    FreeRTOS_sendto                          0x0000123d   Thumb Code   210  freertos_sockets.o(i.FreeRTOS_sendto)
    FreeRTOS_setsockopt                      0x00001315   Thumb Code   524  freertos_sockets.o(i.FreeRTOS_setsockopt)
    FreeRTOS_socket                          0x00001521   Thumb Code   150  freertos_sockets.o(i.FreeRTOS_socket)
    GPIO_ClearValue                          0x000015b9   Thumb Code    38  lpc17xx_gpio.o(i.GPIO_ClearValue)
    GPIO_ReadValue                           0x000015f5   Thumb Code    40  lpc17xx_gpio.o(i.GPIO_ReadValue)
    GPIO_SetDir                              0x00001631   Thumb Code    50  lpc17xx_gpio.o(i.GPIO_SetDir)
    GPIO_SetValue                            0x00001679   Thumb Code    38  lpc17xx_gpio.o(i.GPIO_SetValue)
    PINSEL_ConfigPin                         0x00001749   Thumb Code   128  lpc17xx_pinsel.o(i.PINSEL_ConfigPin)
    SystemCoreClockUpdate                    0x000017f5   Thumb Code   300  system_lpc17xx.o(i.SystemCoreClockUpdate)
    SystemInit                               0x00001931   Thumb Code   298  system_lpc17xx.o(i.SystemInit)
    UART_ConfigStructInit                    0x00001a71   Thumb Code    18  lpc17xx_uart.o(i.UART_ConfigStructInit)
    UART_FIFOConfigStructInit                0x00001a83   Thumb Code    14  lpc17xx_uart.o(i.UART_FIFOConfigStructInit)
    UART_Init                                0x00001a91   Thumb Code   726  lpc17xx_uart.o(i.UART_Init)
    UART_Send                                0x00001d99   Thumb Code   250  lpc17xx_uart.o(i.UART_Send)
    UART_TxCmd                               0x00001ea1   Thumb Code   100  lpc17xx_uart.o(i.UART_TxCmd)
    check_failed                             0x00001f55   Thumb Code     2  lpc17xx_libcfg_default.o(i.check_failed)
    eARPGetCacheEntry                        0x00001f59   Thumb Code   108  freertos_arp.o(i.eARPGetCacheEntry)
    eARPProcessPacket                        0x00001fd1   Thumb Code   162  freertos_arp.o(i.eARPProcessPacket)
    eConsiderFrameForProcessing              0x0000207d   Thumb Code    66  freertos_ip.o(i.eConsiderFrameForProcessing)
    lStreamBufferAdd                         0x000020c9   Thumb Code   240  freertos_stream_buffer.o(i.lStreamBufferAdd)
    lStreamBufferGet                         0x000021ef   Thumb Code   170  freertos_stream_buffer.o(i.lStreamBufferGet)
    lTCPAddRxdata                            0x000022f5   Thumb Code   122  freertos_sockets.o(i.lTCPAddRxdata)
    lTCPWindowRxCheck                        0x0000236f   Thumb Code    30  freertos_tcp_win.o(i.lTCPWindowRxCheck)
    lTCPWindowTxAdd                          0x0000238d   Thumb Code   122  freertos_tcp_win.o(i.lTCPWindowTxAdd)
    leBotoesMensagens                        0x0000240d   Thumb Code   134  main.o(i.leBotoesMensagens)
    leCanalAD                                0x0000249d   Thumb Code    88  main.o(i.leCanalAD)
    lerBotaoLed                              0x000024fd   Thumb Code    24  main.o(i.lerBotaoLed)
    main                                     0x00002519   Thumb Code   390  main.o(i.main)
    mensagemUART                             0x00002769   Thumb Code    52  main.o(i.mensagemUART)
    potenciometro                            0x000027a5   Thumb Code    38  main.o(i.potenciometro)
    pvPortMalloc                             0x000047f1   Thumb Code   318  heap_4.o(i.pvPortMalloc)
    pvTaskIncrementMutexHeldCount            0x0000493d   Thumb Code    18  tasks.o(i.pvTaskIncrementMutexHeldCount)
    pxGetNetworkBufferWithDescriptor         0x00004955   Thumb Code   112  bufferallocation_2.o(i.pxGetNetworkBufferWithDescriptor)
    pxPortInitialiseStack                    0x00004a01   Thumb Code    30  port.o(i.pxPortInitialiseStack)
    pxTCPSocketLookup                        0x00004a25   Thumb Code    80  freertos_sockets.o(i.pxTCPSocketLookup)
    pxUDPPayloadBuffer_to_NetworkBuffer      0x00004a79   Thumb Code    26  freertos_ip.o(i.pxUDPPayloadBuffer_to_NetworkBuffer)
    pxUDPSocketLookup                        0x00004a95   Thumb Code    24  freertos_sockets.o(i.pxUDPSocketLookup)
    recebeEnviaSerial                        0x00004af1   Thumb Code    62  main.o(i.recebeEnviaSerial)
    setEthernetPins                          0x00004c01   Thumb Code   362  networkhal.o(i.setEthernetPins)
    ulDNSHandlePacket                        0x00004dc9   Thumb Code    24  freertos_dns.o(i.ulDNSHandlePacket)
    ulTCPWindowTxAck                         0x00004de1   Thumb Code    82  freertos_tcp_win.o(i.ulTCPWindowTxAck)
    ulTCPWindowTxGet                         0x00004e39   Thumb Code   100  freertos_tcp_win.o(i.ulTCPWindowTxGet)
    ulTaskNotifyTake                         0x00004e9d   Thumb Code    98  tasks.o(i.ulTaskNotifyTake)
    usGenerateChecksum                       0x00004f17   Thumb Code   350  freertos_ip.o(i.usGenerateChecksum)
    usGenerateProtocolChecksum               0x00005075   Thumb Code   216  freertos_ip.o(i.usGenerateProtocolChecksum)
    uxListRemove                             0x0000514d   Thumb Code    38  list.o(i.uxListRemove)
    uxQueueMessagesWaiting                   0x00005173   Thumb Code    18  queue.o(i.uxQueueMessagesWaiting)
    uxTaskResetEventItemValue                0x00005185   Thumb Code    20  tasks.o(i.uxTaskResetEventItemValue)
    vARPAgeCache                             0x0000519d   Thumb Code   174  freertos_arp.o(i.vARPAgeCache)
    vARPGenerateRequestPacket                0x00005259   Thumb Code    62  freertos_arp.o(i.vARPGenerateRequestPacket)
    vARPRefreshCacheEntry                    0x000052a1   Thumb Code   330  freertos_arp.o(i.vARPRefreshCacheEntry)
    vApplicationGetIdleTaskMemory            0x000053f9   Thumb Code    16  freertosappstaticalloc.o(i.vApplicationGetIdleTaskMemory)
    vApplicationGetTimerTaskMemory           0x0000540d   Thumb Code    16  freertosappstaticalloc.o(i.vApplicationGetTimerTaskMemory)
    vApplicationIPNetworkEventHook           0x00005421   Thumb Code     2  main.o(i.vApplicationIPNetworkEventHook)
    vApplicationStackOverflowHook            0x00005425   Thumb Code    90  main.o(i.vApplicationStackOverflowHook)
    vEventGroupDelete                        0x00005489   Thumb Code    52  event_groups.o(i.vEventGroupDelete)
    vIPNetworkUpCalls                        0x000054bd   Thumb Code    26  freertos_ip.o(i.vIPNetworkUpCalls)
    vListInitialise                          0x000054e1   Thumb Code    22  list.o(i.vListInitialise)
    vListInitialiseItem                      0x000054f7   Thumb Code     6  list.o(i.vListInitialiseItem)
    vListInsert                              0x000054fd   Thumb Code    58  list.o(i.vListInsert)
    vListInsertEnd                           0x00005537   Thumb Code    24  list.o(i.vListInsertEnd)
    vNetworkSocketsInit                      0x00005551   Thumb Code    38  freertos_sockets.o(i.vNetworkSocketsInit)
    vPortEnterCritical                       0x00005589   Thumb Code    24  port.o(i.vPortEnterCritical)
    vPortExitCritical                        0x000055a5   Thumb Code    20  port.o(i.vPortExitCritical)
    vPortFree                                0x000055bd   Thumb Code   134  heap_4.o(i.vPortFree)
    vPortSetupTimerInterrupt                 0x0000564d   Thumb Code    32  port.o(i.vPortSetupTimerInterrupt)
    vProcessGeneratedUDPPacket               0x00005671   Thumb Code   214  freertos_udp_ip.o(i.vProcessGeneratedUDPPacket)
    vQueueDelete                             0x0000574d   Thumb Code    14  queue.o(i.vQueueDelete)
    vQueueWaitForMessageRestricted           0x0000575b   Thumb Code    74  queue.o(i.vQueueWaitForMessageRestricted)
    vReleaseNetworkBuffer                    0x000057a5   Thumb Code    16  bufferallocation_2.o(i.vReleaseNetworkBuffer)
    vReleaseNetworkBufferAndDescriptor       0x000057b5   Thumb Code    66  bufferallocation_2.o(i.vReleaseNetworkBufferAndDescriptor)
    vReturnEthernetFrame                     0x00005801   Thumb Code    40  freertos_ip.o(i.vReturnEthernetFrame)
    vSocketBind                              0x0000582d   Thumb Code   126  freertos_sockets.o(i.vSocketBind)
    vSocketClose                             0x000058b5   Thumb Code   110  freertos_sockets.o(i.vSocketClose)
    vTCPStateChange                          0x00005923   Thumb Code   216  freertos_tcp_ip.o(i.vTCPStateChange)
    vTCPWindowCreate                         0x00005a09   Thumb Code    46  freertos_tcp_win.o(i.vTCPWindowCreate)
    vTCPWindowInit                           0x00005a3d   Thumb Code    90  freertos_tcp_win.o(i.vTCPWindowInit)
    vTaskDelay                               0x00005a99   Thumb Code    46  tasks.o(i.vTaskDelay)
    vTaskInternalSetTimeOutState             0x00005ad1   Thumb Code    12  tasks.o(i.vTaskInternalSetTimeOutState)
    vTaskMissedYield                         0x00005ae1   Thumb Code     8  tasks.o(i.vTaskMissedYield)
    vTaskPlaceOnEventList                    0x00005aed   Thumb Code    28  tasks.o(i.vTaskPlaceOnEventList)
    vTaskPlaceOnEventListRestricted          0x00005b0d   Thumb Code    42  tasks.o(i.vTaskPlaceOnEventListRestricted)
    vTaskPlaceOnUnorderedEventList           0x00005b3d   Thumb Code    44  tasks.o(i.vTaskPlaceOnUnorderedEventList)
    vTaskPriorityDisinheritAfterTimeout      0x00005b6d   Thumb Code   122  tasks.o(i.vTaskPriorityDisinheritAfterTimeout)
    vTaskRemoveFromUnorderedEventList        0x00005bf1   Thumb Code    66  tasks.o(i.vTaskRemoveFromUnorderedEventList)
    vTaskRetornoLed2                         0x00005c3d   Thumb Code    44  main.o(i.vTaskRetornoLed2)
    vTaskSetTimeOutState                     0x00005c69   Thumb Code    26  tasks.o(i.vTaskSetTimeOutState)
    vTaskStartScheduler                      0x00005c89   Thumb Code   248  tasks.o(i.vTaskStartScheduler)
    vTaskSuspend                             0x00005d91   Thumb Code   290  tasks.o(i.vTaskSuspend)
    vTaskSuspendAll                          0x00005ec5   Thumb Code    10  tasks.o(i.vTaskSuspendAll)
    vTaskSwitchContext                       0x00005ed5   Thumb Code   112  tasks.o(i.vTaskSwitchContext)
    vWakeUpSocketUser                        0x00005fc9   Thumb Code    26  freertos_sockets.o(i.vWakeUpSocketUser)
    xEventGroupCreate                        0x00006019   Thumb Code    28  event_groups.o(i.xEventGroupCreate)
    xEventGroupSetBits                       0x00006035   Thumb Code   108  event_groups.o(i.xEventGroupSetBits)
    xEventGroupWaitBits                      0x000060a1   Thumb Code   182  event_groups.o(i.xEventGroupWaitBits)
    xIPIsNetworkTaskReady                    0x0000615d   Thumb Code     6  freertos_ip.o(i.xIPIsNetworkTaskReady)
    xIsCallingFromIPTask                     0x00006169   Thumb Code    24  freertos_ip.o(i.xIsCallingFromIPTask)
    xNetworkBuffersInitialise                0x00006185   Thumb Code   126  bufferallocation_2.o(i.xNetworkBuffersInitialise)
    xNetworkInterfaceInitialise              0x00006215   Thumb Code    20  networkhal.o(i.xNetworkInterfaceInitialise)
    xNetworkInterfaceOutput                  0x00006229   Thumb Code    26  networkhal.o(i.xNetworkInterfaceOutput)
    xPortStartScheduler                      0x00006245   Thumb Code    38  port.o(i.xPortStartScheduler)
    xPortSysTickHandler                      0x00006275   Thumb Code    38  port.o(i.xPortSysTickHandler)
    xProcessReceivedTCPPacket                0x000062a1   Thumb Code   358  freertos_tcp_ip.o(i.xProcessReceivedTCPPacket)
    xProcessReceivedUDPPacket                0x00006407   Thumb Code   126  freertos_udp_ip.o(i.xProcessReceivedUDPPacket)
    xQueueCreateCountingSemaphore            0x00006485   Thumb Code    20  queue.o(i.xQueueCreateCountingSemaphore)
    xQueueCreateMutex                        0x00006499   Thumb Code    36  queue.o(i.xQueueCreateMutex)
    xQueueGenericCreate                      0x000064bd   Thumb Code   112  queue.o(i.xQueueGenericCreate)
    xQueueGenericCreateStatic                0x0000652d   Thumb Code    98  queue.o(i.xQueueGenericCreateStatic)
    xQueueGenericSend                        0x00006591   Thumb Code   364  queue.o(i.xQueueGenericSend)
    xQueueGenericSendFromISR                 0x00006701   Thumb Code   200  queue.o(i.xQueueGenericSendFromISR)
    xQueueGiveFromISR                        0x000067c9   Thumb Code    84  queue.o(i.xQueueGiveFromISR)
    xQueueReceive                            0x0000681d   Thumb Code   272  queue.o(i.xQueueReceive)
    xQueueSemaphoreTake                      0x00006931   Thumb Code   322  queue.o(i.xQueueSemaphoreTake)
    xSendEventStructToIPTask                 0x00006a79   Thumb Code   132  freertos_ip.o(i.xSendEventStructToIPTask)
    xSendEventToIPTask                       0x00006b09   Thumb Code    24  freertos_ip.o(i.xSendEventToIPTask)
    xTCPCheckNewClient                       0x00006b21   Thumb Code    76  freertos_tcp_ip.o(i.xTCPCheckNewClient)
    xTCPSocketCheck                          0x00006b71   Thumb Code    68  freertos_tcp_ip.o(i.xTCPSocketCheck)
    xTCPTimerCheck                           0x00006bb5   Thumb Code   146  freertos_sockets.o(i.xTCPTimerCheck)
    xTCPWindowRxEmpty                        0x00006c55   Thumb Code    16  freertos_tcp_win.o(i.xTCPWindowRxEmpty)
    xTCPWindowTxDone                         0x00006c65   Thumb Code    14  freertos_tcp_win.o(i.xTCPWindowTxDone)
    xTCPWindowTxHasData                      0x00006c73   Thumb Code    96  freertos_tcp_win.o(i.xTCPWindowTxHasData)
    xTaskCheckForTimeOut                     0x00006cd5   Thumb Code    88  tasks.o(i.xTaskCheckForTimeOut)
    xTaskCreate                              0x00006d31   Thumb Code   194  tasks.o(i.xTaskCreate)
    xTaskCreateStatic                        0x00006df3   Thumb Code   186  tasks.o(i.xTaskCreateStatic)
    xTaskGenericNotify                       0x00006ead   Thumb Code   152  tasks.o(i.xTaskGenericNotify)
    xTaskGetCurrentTaskHandle                0x00006f51   Thumb Code     6  tasks.o(i.xTaskGetCurrentTaskHandle)
    xTaskGetSchedulerState                   0x00006f5d   Thumb Code    24  tasks.o(i.xTaskGetSchedulerState)
    xTaskGetTickCount                        0x00006f79   Thumb Code     6  tasks.o(i.xTaskGetTickCount)
    xTaskIncrementTick                       0x00006f85   Thumb Code   204  tasks.o(i.xTaskIncrementTick)
    xTaskPriorityDisinherit                  0x00007059   Thumb Code   114  tasks.o(i.xTaskPriorityDisinherit)
    xTaskPriorityInherit                     0x000070d5   Thumb Code   136  tasks.o(i.xTaskPriorityInherit)
    xTaskRemoveFromEventList                 0x00007165   Thumb Code    86  tasks.o(i.xTaskRemoveFromEventList)
    xTaskResumeAll                           0x000071c9   Thumb Code   388  tasks.o(i.xTaskResumeAll)
    xTimerCreate                             0x00007359   Thumb Code   128  timers.o(i.xTimerCreate)
    xTimerCreateTimerTask                    0x000073e5   Thumb Code   118  timers.o(i.xTimerCreateTimerTask)
    xTimerGenericCommand                     0x00007475   Thumb Code    94  timers.o(i.xTimerGenericCommand)
    xBroadcastMACAddress                     0x000074dc   Data           6  freertos_ip.o(.constdata)
    xBufferAllocFixedSize                    0x00007524   Data           4  bufferallocation_2.o(.constdata)
    EMAC_clkdiv                              0x00007528   Data          10  lpc17xx_emac.o(.constdata)
    Region$$Table$$Base                      0x00007534   Number         0  anon$$obj.o(Region$$Table)
    Region$$Table$$Limit                     0x00007564   Number         0  anon$$obj.o(Region$$Table)
    ucMACAddress                             0x2007c020   Data           6  main.o(.data)
    xTaskHandleBotao                         0x2007c028   Data           4  main.o(.data)
    xSemaphoreBotao1                         0x2007c02c   Data           4  main.o(.data)
    xSemaphoreBotao2                         0x2007c030   Data           4  main.o(.data)
    SystemCoreClock                          0x2007c034   Data           4  system_lpc17xx.o(.data)
    pxCurrentTCB                             0x2007c03c   Data           4  tasks.o(.data)
    xNetworkEventQueue                       0x2007c08c   Data           4  freertos_ip.o(.data)
    uxRxEventCount                           0x2007c090   Data           4  freertos_ip.o(.data)
    usPacketIdentifier                       0x2007c094   Data           2  freertos_ip.o(.data)
    ulNextInitialSequenceNumber              0x2007c0e0   Data           4  freertos_tcp_ip.o(.data)
    xTCPWindowLoggingLevel                   0x2007c0e4   Data           4  freertos_tcp_win.o(.data)
    xDefaultPartUDPPacketHeader              0x2007c0e8   Data          24  freertos_udp_ip.o(.data)
    xEMACRxEventSemaphore                    0x2007c108   Data           4  networkhal.o(.data)
    xNetworkAddressing                       0x2007cb64   Data          20  freertos_ip.o(.bss)
    xDefaultAddressing                       0x2007cb78   Data          20  freertos_ip.o(.bss)
    xBoundUdpSocketsList                     0x2007cbb4   Data          20  freertos_sockets.o(.bss)
    xBoundTcpSocketsList                     0x2007cbc8   Data          20  freertos_sockets.o(.bss)
    __libspace_start                         0x2007e814   Data          96  libspace.o(.bss)
    __temporary_stack_top$libspace           0x2007e874   Data           0  libspace.o(.bss)



==============================================================================

Memory Map of the image

  Image Entry point : 0x000000cd

  Load Region LR_IROM1 (Base: 0x00000000, Size: 0x00007670, Max: 0x00080000, ABSOLUTE)

    Execution Region ER_IROM1 (Exec base: 0x00000000, Load base: 0x00000000, Size: 0x00007564, Max: 0x00080000, ABSOLUTE)

    Exec Addr    Load Addr    Size         Type   Attr      Idx    E Section Name        Object

    0x00000000   0x00000000   0x000000cc   Data   RO          320    RESET               startup_mps_cm3.o
    0x000000cc   0x000000cc   0x00000008   Code   RO         3280  * !!!main             c_w.l(__main.o)
    0x000000d4   0x000000d4   0x00000034   Code   RO         3460    !!!scatter          c_w.l(__scatter.o)
    0x00000108   0x00000108   0x0000001a   Code   RO         3462    !!handler_copy      c_w.l(__scatter_copy.o)
    0x00000122   0x00000122   0x00000002   PAD
    0x00000124   0x00000124   0x0000001c   Code   RO         3464    !!handler_zi        c_w.l(__scatter_zi.o)
    0x00000140   0x00000140   0x00000000   Code   RO         3259    .ARM.Collect$$_printf_percent$$00000000  c_w.l(_printf_percent.o)
    0x00000140   0x00000140   0x00000006   Code   RO         3258    .ARM.Collect$$_printf_percent$$0000000A  c_w.l(_printf_u.o)
    0x00000146   0x00000146   0x00000004   Code   RO         3295    .ARM.Collect$$_printf_percent$$00000017  c_w.l(_printf_percent_end.o)
    0x0000014a   0x0000014a   0x00000002   Code   RO         3330    .ARM.Collect$$libinit$$00000000  c_w.l(libinit.o)
    0x0000014c   0x0000014c   0x00000000   Code   RO         3343    .ARM.Collect$$libinit$$00000002  c_w.l(libinit2.o)
    0x0000014c   0x0000014c   0x00000000   Code   RO         3345    .ARM.Collect$$libinit$$00000004  c_w.l(libinit2.o)
    0x0000014c   0x0000014c   0x00000000   Code   RO         3348    .ARM.Collect$$libinit$$0000000A  c_w.l(libinit2.o)
    0x0000014c   0x0000014c   0x00000000   Code   RO         3350    .ARM.Collect$$libinit$$0000000C  c_w.l(libinit2.o)
    0x0000014c   0x0000014c   0x00000000   Code   RO         3352    .ARM.Collect$$libinit$$0000000E  c_w.l(libinit2.o)
    0x0000014c   0x0000014c   0x00000000   Code   RO         3355    .ARM.Collect$$libinit$$00000011  c_w.l(libinit2.o)
    0x0000014c   0x0000014c   0x00000000   Code   RO         3357    .ARM.Collect$$libinit$$00000013  c_w.l(libinit2.o)
    0x0000014c   0x0000014c   0x00000000   Code   RO         3359    .ARM.Collect$$libinit$$00000015  c_w.l(libinit2.o)
    0x0000014c   0x0000014c   0x00000000   Code   RO         3361    .ARM.Collect$$libinit$$00000017  c_w.l(libinit2.o)
    0x0000014c   0x0000014c   0x00000000   Code   RO         3363    .ARM.Collect$$libinit$$00000019  c_w.l(libinit2.o)
    0x0000014c   0x0000014c   0x00000000   Code   RO         3365    .ARM.Collect$$libinit$$0000001B  c_w.l(libinit2.o)
    0x0000014c   0x0000014c   0x00000000   Code   RO         3367    .ARM.Collect$$libinit$$0000001D  c_w.l(libinit2.o)
    0x0000014c   0x0000014c   0x00000000   Code   RO         3369    .ARM.Collect$$libinit$$0000001F  c_w.l(libinit2.o)
    0x0000014c   0x0000014c   0x00000000   Code   RO         3371    .ARM.Collect$$libinit$$00000021  c_w.l(libinit2.o)
    0x0000014c   0x0000014c   0x00000000   Code   RO         3373    .ARM.Collect$$libinit$$00000023  c_w.l(libinit2.o)
    0x0000014c   0x0000014c   0x00000000   Code   RO         3375    .ARM.Collect$$libinit$$00000025  c_w.l(libinit2.o)
    0x0000014c   0x0000014c   0x00000000   Code   RO         3379    .ARM.Collect$$libinit$$0000002C  c_w.l(libinit2.o)
    0x0000014c   0x0000014c   0x00000000   Code   RO         3381    .ARM.Collect$$libinit$$0000002E  c_w.l(libinit2.o)
    0x0000014c   0x0000014c   0x00000000   Code   RO         3383    .ARM.Collect$$libinit$$00000030  c_w.l(libinit2.o)
    0x0000014c   0x0000014c   0x00000000   Code   RO         3385    .ARM.Collect$$libinit$$00000032  c_w.l(libinit2.o)
    0x0000014c   0x0000014c   0x00000002   Code   RO         3386    .ARM.Collect$$libinit$$00000033  c_w.l(libinit2.o)
    0x0000014e   0x0000014e   0x00000002   Code   RO         3417    .ARM.Collect$$libshutdown$$00000000  c_w.l(libshutdown.o)
    0x00000150   0x00000150   0x00000000   Code   RO         3443    .ARM.Collect$$libshutdown$$00000002  c_w.l(libshutdown2.o)
    0x00000150   0x00000150   0x00000000   Code   RO         3445    .ARM.Collect$$libshutdown$$00000004  c_w.l(libshutdown2.o)
    0x00000150   0x00000150   0x00000000   Code   RO         3448    .ARM.Collect$$libshutdown$$00000007  c_w.l(libshutdown2.o)
    0x00000150   0x00000150   0x00000000   Code   RO         3451    .ARM.Collect$$libshutdown$$0000000A  c_w.l(libshutdown2.o)
    0x00000150   0x00000150   0x00000000   Code   RO         3453    .ARM.Collect$$libshutdown$$0000000C  c_w.l(libshutdown2.o)
    0x00000150   0x00000150   0x00000000   Code   RO         3456    .ARM.Collect$$libshutdown$$0000000F  c_w.l(libshutdown2.o)
    0x00000150   0x00000150   0x00000002   Code   RO         3457    .ARM.Collect$$libshutdown$$00000010  c_w.l(libshutdown2.o)
    0x00000152   0x00000152   0x00000000   Code   RO         3282    .ARM.Collect$$rtentry$$00000000  c_w.l(__rtentry.o)
    0x00000152   0x00000152   0x00000000   Code   RO         3299    .ARM.Collect$$rtentry$$00000002  c_w.l(__rtentry2.o)
    0x00000152   0x00000152   0x00000006   Code   RO         3311    .ARM.Collect$$rtentry$$00000004  c_w.l(__rtentry4.o)
    0x00000158   0x00000158   0x00000000   Code   RO         3301    .ARM.Collect$$rtentry$$00000009  c_w.l(__rtentry2.o)
    0x00000158   0x00000158   0x00000004   Code   RO         3302    .ARM.Collect$$rtentry$$0000000A  c_w.l(__rtentry2.o)
    0x0000015c   0x0000015c   0x00000000   Code   RO         3304    .ARM.Collect$$rtentry$$0000000C  c_w.l(__rtentry2.o)
    0x0000015c   0x0000015c   0x00000008   Code   RO         3305    .ARM.Collect$$rtentry$$0000000D  c_w.l(__rtentry2.o)
    0x00000164   0x00000164   0x00000002   Code   RO         3334    .ARM.Collect$$rtexit$$00000000  c_w.l(rtexit.o)
    0x00000166   0x00000166   0x00000000   Code   RO         3390    .ARM.Collect$$rtexit$$00000002  c_w.l(rtexit2.o)
    0x00000166   0x00000166   0x00000004   Code   RO         3391    .ARM.Collect$$rtexit$$00000003  c_w.l(rtexit2.o)
    0x0000016a   0x0000016a   0x00000006   Code   RO         3392    .ARM.Collect$$rtexit$$00000004  c_w.l(rtexit2.o)
    0x00000170   0x00000170   0x00000096   Code   RO          325    .emb_text           FreeRTOS.lib(port.o)
    0x00000206   0x00000206   0x00000002   PAD
    0x00000208   0x00000208   0x00000034   Code   RO          321    .text               startup_mps_cm3.o
    0x0000023c   0x0000023c   0x000000ee   Code   RO         3225    .text               c_w.l(lludivv7m.o)
    0x0000032a   0x0000032a   0x00000002   PAD
    0x0000032c   0x0000032c   0x00000028   Code   RO         3229    .text               c_w.l(noretval__2sprintf.o)
    0x00000354   0x00000354   0x00000068   Code   RO         3231    .text               c_w.l(__printf.o)
    0x000003bc   0x000003bc   0x00000078   Code   RO         3235    .text               c_w.l(_printf_dec.o)
    0x00000434   0x00000434   0x00000058   Code   RO         3260    .text               c_w.l(memcmp.o)
    0x0000048c   0x0000048c   0x0000003e   Code   RO         3264    .text               c_w.l(strlen.o)
    0x000004ca   0x000004ca   0x0000008a   Code   RO         3266    .text               c_w.l(rt_memcpy_v6.o)
    0x00000554   0x00000554   0x00000084   Code   RO         3268    .text               c_w.l(rt_memmove_v6.o)
    0x000005d8   0x000005d8   0x00000064   Code   RO         3270    .text               c_w.l(rt_memcpy_w.o)
    0x0000063c   0x0000063c   0x00000010   Code   RO         3272    .text               c_w.l(aeabi_memset.o)
    0x0000064c   0x0000064c   0x00000044   Code   RO         3274    .text               c_w.l(rt_memclr.o)
    0x00000690   0x00000690   0x0000004e   Code   RO         3276    .text               c_w.l(rt_memclr_w.o)
    0x000006de   0x000006de   0x00000006   Code   RO         3278    .text               c_w.l(heapauxi.o)
    0x000006e4   0x000006e4   0x000000b2   Code   RO         3287    .text               c_w.l(_printf_intcommon.o)
    0x00000796   0x00000796   0x00000002   PAD
    0x00000798   0x00000798   0x00000030   Code   RO         3289    .text               c_w.l(_printf_char_common.o)
    0x000007c8   0x000007c8   0x0000000a   Code   RO         3291    .text               c_w.l(_sputc.o)
    0x000007d2   0x000007d2   0x0000007a   Code   RO         3296    .text               c_w.l(rt_memmove_w.o)
    0x0000084c   0x0000084c   0x0000004a   Code   RO         3317    .text               c_w.l(sys_stackheap_outer.o)
    0x00000896   0x00000896   0x00000012   Code   RO         3319    .text               c_w.l(exit.o)
    0x000008a8   0x000008a8   0x00000008   Code   RO         3331    .text               c_w.l(libspace.o)
    0x000008b0   0x000008b0   0x0000000c   Code   RO         3387    .text               c_w.l(sys_exit.o)
    0x000008bc   0x000008bc   0x00000002   Code   RO         3406    .text               c_w.l(use_no_semi.o)
    0x000008be   0x000008be   0x00000000   Code   RO         3408    .text               c_w.l(indicate_semi.o)
    0x000008be   0x000008be   0x00000002   PAD
    0x000008c0   0x000008c0   0x00000054   Code   RO         1006    i.ADC_ChannelCmd    CMSIS.lib(lpc17xx_adc.o)
    0x00000914   0x00000914   0x0000004c   Code   RO         1007    i.ADC_ChannelGetData  CMSIS.lib(lpc17xx_adc.o)
    0x00000960   0x00000960   0x0000006c   Code   RO         1008    i.ADC_ChannelGetStatus  CMSIS.lib(lpc17xx_adc.o)
    0x000009cc   0x000009cc   0x00000080   Code   RO         1014    i.ADC_Init          CMSIS.lib(lpc17xx_adc.o)
    0x00000a4c   0x00000a4c   0x00000078   Code   RO         1017    i.ADC_StartCmd      CMSIS.lib(lpc17xx_adc.o)
    0x00000ac4   0x00000ac4   0x00000030   Code   RO         2321    i.CLKPWR_ConfigPPWR  CMSIS.lib(lpc17xx_clkpwr.o)
    0x00000af4   0x00000af4   0x00000040   Code   RO         2324    i.CLKPWR_GetPCLK    CMSIS.lib(lpc17xx_clkpwr.o)
    0x00000b34   0x00000b34   0x00000020   Code   RO         3058    i.EMAC_CheckReceiveDataStatus  Network.lib(lpc17xx_emac.o)
    0x00000b54   0x00000b54   0x0000001c   Code   RO         3059    i.EMAC_CheckReceiveIndex  Network.lib(lpc17xx_emac.o)
    0x00000b70   0x00000b70   0x00000020   Code   RO         3060    i.EMAC_CheckTransmitIndex  Network.lib(lpc17xx_emac.o)
    0x00000b90   0x00000b90   0x00000018   Code   RO         3062    i.EMAC_GetReceiveDataSize  Network.lib(lpc17xx_emac.o)
    0x00000ba8   0x00000ba8   0x0000013c   Code   RO         3064    i.EMAC_Init         Network.lib(lpc17xx_emac.o)
    0x00000ce4   0x00000ce4   0x00000030   Code   RO         3067    i.EMAC_ReadPacketBuffer  Network.lib(lpc17xx_emac.o)
    0x00000d14   0x00000d14   0x000000bc   Code   RO         3070    i.EMAC_SetPHYMode   Network.lib(lpc17xx_emac.o)
    0x00000dd0   0x00000dd0   0x0000007c   Code   RO         3071    i.EMAC_UpdatePHYStatus  Network.lib(lpc17xx_emac.o)
    0x00000e4c   0x00000e4c   0x00000018   Code   RO         3072    i.EMAC_UpdateRxConsumeIndex  Network.lib(lpc17xx_emac.o)
    0x00000e64   0x00000e64   0x00000018   Code   RO         3073    i.EMAC_UpdateTxProduceIndex  Network.lib(lpc17xx_emac.o)
    0x00000e7c   0x00000e7c   0x0000003c   Code   RO         3074    i.EMAC_WritePacketBuffer  Network.lib(lpc17xx_emac.o)
    0x00000eb8   0x00000eb8   0x0000005c   Code   RO         2868    i.ENET_IRQHandler   Network.lib(networkhal.o)
    0x00000f14   0x00000f14   0x00000120   Code   RO         1498    i.FreeRTOS_IPInit   Network.lib(freertos_ip.o)
    0x00001034   0x00001034   0x00000028   Code   RO         1500    i.FreeRTOS_NetworkDown  Network.lib(freertos_ip.o)
    0x0000105c   0x0000105c   0x00000022   Code   RO         2394    i.FreeRTOS_OutputARPRequest  Network.lib(freertos_arp.o)
    0x0000107e   0x0000107e   0x0000007e   Code   RO         1833    i.FreeRTOS_bind     Network.lib(freertos_sockets.o)
    0x000010fc   0x000010fc   0x00000030   Code   RO         1834    i.FreeRTOS_closesocket  Network.lib(freertos_sockets.o)
    0x0000112c   0x0000112c   0x00000028   Code   RO         1845    i.FreeRTOS_outstanding  Network.lib(freertos_sockets.o)
    0x00001154   0x00001154   0x000000e6   Code   RO         1848    i.FreeRTOS_recvfrom  Network.lib(freertos_sockets.o)
    0x0000123a   0x0000123a   0x00000002   PAD
    0x0000123c   0x0000123c   0x000000d8   Code   RO         1851    i.FreeRTOS_sendto   Network.lib(freertos_sockets.o)
    0x00001314   0x00001314   0x0000020c   Code   RO         1852    i.FreeRTOS_setsockopt  Network.lib(freertos_sockets.o)
    0x00001520   0x00001520   0x00000096   Code   RO         1854    i.FreeRTOS_socket   Network.lib(freertos_sockets.o)
    0x000015b6   0x000015b6   0x00000002   PAD
    0x000015b8   0x000015b8   0x0000003c   Code   RO         1128    i.GPIO_ClearValue   CMSIS.lib(lpc17xx_gpio.o)
    0x000015f4   0x000015f4   0x0000003c   Code   RO         1131    i.GPIO_ReadValue    CMSIS.lib(lpc17xx_gpio.o)
    0x00001630   0x00001630   0x00000048   Code   RO         1132    i.GPIO_SetDir       CMSIS.lib(lpc17xx_gpio.o)
    0x00001678   0x00001678   0x0000003c   Code   RO         1133    i.GPIO_SetValue     CMSIS.lib(lpc17xx_gpio.o)
    0x000016b4   0x000016b4   0x00000094   Code   RO         2869    i.InitialiseNetwork  Network.lib(networkhal.o)
    0x00001748   0x00001748   0x0000008c   Code   RO         1270    i.PINSEL_ConfigPin  CMSIS.lib(lpc17xx_pinsel.o)
    0x000017d4   0x000017d4   0x0000001e   Code   RO         2870    i.SendData          Network.lib(networkhal.o)
    0x000017f2   0x000017f2   0x00000002   PAD
    0x000017f4   0x000017f4   0x0000013c   Code   RO          284    i.SystemCoreClockUpdate  system_lpc17xx.o
    0x00001930   0x00001930   0x00000140   Code   RO          285    i.SystemInit        system_lpc17xx.o
    0x00001a70   0x00001a70   0x00000012   Code   RO         1315    i.UART_ConfigStructInit  CMSIS.lib(lpc17xx_uart.o)
    0x00001a82   0x00001a82   0x0000000e   Code   RO         1318    i.UART_FIFOConfigStructInit  CMSIS.lib(lpc17xx_uart.o)
    0x00001a90   0x00001a90   0x00000308   Code   RO         1325    i.UART_Init         CMSIS.lib(lpc17xx_uart.o)
    0x00001d98   0x00001d98   0x00000108   Code   RO         1337    i.UART_Send         CMSIS.lib(lpc17xx_uart.o)
    0x00001ea0   0x00001ea0   0x0000008c   Code   RO         1339    i.UART_TxCmd        CMSIS.lib(lpc17xx_uart.o)
    0x00001f2c   0x00001f2c   0x00000028   Code   RO            3    i.blinkCallBack     main.o
    0x00001f54   0x00001f54   0x00000002   Code   RO         2381    i.check_failed      CMSIS.lib(lpc17xx_libcfg_default.o)
    0x00001f56   0x00001f56   0x00000002   PAD
    0x00001f58   0x00001f58   0x00000078   Code   RO         2395    i.eARPGetCacheEntry  Network.lib(freertos_arp.o)
    0x00001fd0   0x00001fd0   0x000000ac   Code   RO         2396    i.eARPProcessPacket  Network.lib(freertos_arp.o)
    0x0000207c   0x0000207c   0x0000004c   Code   RO         1507    i.eConsiderFrameForProcessing  Network.lib(freertos_ip.o)
    0x000020c8   0x000020c8   0x000000f0   Code   RO         2460    i.lStreamBufferAdd  Network.lib(freertos_stream_buffer.o)
    0x000021b8   0x000021b8   0x00000016   Code   RO         2497    i.lStreamBufferDistance  Network.lib(freertos_tcp_ip.o)
    0x000021ce   0x000021ce   0x00000010   Code   RO         1858    i.lStreamBufferFrontSpace  Network.lib(freertos_sockets.o)
    0x000021de   0x000021de   0x00000010   Code   RO         2498    i.lStreamBufferFrontSpace  Network.lib(freertos_tcp_ip.o)
    0x000021ee   0x000021ee   0x000000aa   Code   RO         2461    i.lStreamBufferGet  Network.lib(freertos_stream_buffer.o)
    0x00002298   0x00002298   0x0000001c   Code   RO         1859    i.lStreamBufferGetSize  Network.lib(freertos_sockets.o)
    0x000022b4   0x000022b4   0x00000010   Code   RO         2499    i.lStreamBufferMidSpace  Network.lib(freertos_tcp_ip.o)
    0x000022c4   0x000022c4   0x00000018   Code   RO         1861    i.lStreamBufferSpace  Network.lib(freertos_sockets.o)
    0x000022dc   0x000022dc   0x00000018   Code   RO         2500    i.lStreamBufferSpace  Network.lib(freertos_tcp_ip.o)
    0x000022f4   0x000022f4   0x0000007a   Code   RO         1862    i.lTCPAddRxdata     Network.lib(freertos_sockets.o)
    0x0000236e   0x0000236e   0x0000001e   Code   RO         2687    i.lTCPWindowRxCheck  Network.lib(freertos_tcp_win.o)
    0x0000238c   0x0000238c   0x00000080   Code   RO         2688    i.lTCPWindowTxAdd   Network.lib(freertos_tcp_win.o)
    0x0000240c   0x0000240c   0x00000090   Code   RO            4    i.leBotoesMensagens  main.o
    0x0000249c   0x0000249c   0x00000060   Code   RO            5    i.leCanalAD         main.o
    0x000024fc   0x000024fc   0x0000001c   Code   RO            6    i.lerBotaoLed       main.o
    0x00002518   0x00002518   0x00000250   Code   RO            7    i.main              main.o
    0x00002768   0x00002768   0x0000003c   Code   RO            8    i.mensagemUART      main.o
    0x000027a4   0x000027a4   0x00000030   Code   RO            9    i.potenciometro     main.o
    0x000027d4   0x000027d4   0x00000074   Code   RO          592    i.prvAddCurrentTaskToDelayedList  FreeRTOS.lib(tasks.o)
    0x00002848   0x00002848   0x000000e4   Code   RO          593    i.prvAddNewTaskToReadyList  FreeRTOS.lib(tasks.o)
    0x0000292c   0x0000292c   0x0000008c   Code   RO         1508    i.prvAllowIPPacket  Network.lib(freertos_ip.o)
    0x000029b8   0x000029b8   0x00000050   Code   RO         2397    i.prvCacheLookup    Network.lib(freertos_arp.o)
    0x00002a08   0x00002a08   0x00000030   Code   RO         1509    i.prvCalculateSleepTime  Network.lib(freertos_ip.o)
    0x00002a38   0x00002a38   0x00000090   Code   RO         1510    i.prvCheckNetworkTimers  Network.lib(freertos_ip.o)
    0x00002ac8   0x00002ac8   0x000000a8   Code   RO         2501    i.prvCheckOptions   Network.lib(freertos_tcp_ip.o)
    0x00002b70   0x00002b70   0x00000096   Code   RO         2502    i.prvCheckRxData    Network.lib(freertos_tcp_ip.o)
    0x00002c06   0x00002c06   0x00000042   Code   RO         1863    i.prvDetermineSocketSize  Network.lib(freertos_sockets.o)
    0x00002c48   0x00002c48   0x00000094   Code   RO         2871    i.prvEMACDeferredInterruptHandlerTask  Network.lib(networkhal.o)
    0x00002cdc   0x00002cdc   0x0000006c   Code   RO         1864    i.prvGetPrivatePortNumber  Network.lib(freertos_sockets.o)
    0x00002d48   0x00002d48   0x00000190   Code   RO         2503    i.prvHandleEstablished  Network.lib(freertos_tcp_ip.o)
    0x00002ed8   0x00002ed8   0x00000038   Code   RO         1511    i.prvHandleEthernetPacket  Network.lib(freertos_ip.o)
    0x00002f10   0x00002f10   0x0000010c   Code   RO         2504    i.prvHandleListen   Network.lib(freertos_tcp_ip.o)
    0x0000301c   0x0000301c   0x0000010e   Code   RO         2505    i.prvHandleSynReceived  Network.lib(freertos_tcp_ip.o)
    0x0000312a   0x0000312a   0x00000002   PAD
    0x0000312c   0x0000312c   0x00000108   Code   RO         1512    i.prvIPTask         Network.lib(freertos_ip.o)
    0x00003234   0x00003234   0x00000036   Code   RO         1513    i.prvIPTimerCheck   Network.lib(freertos_ip.o)
    0x0000326a   0x0000326a   0x00000012   Code   RO         1514    i.prvIPTimerReload  Network.lib(freertos_ip.o)
    0x0000327c   0x0000327c   0x0000002a   Code   RO         1515    i.prvIPTimerStart   Network.lib(freertos_ip.o)
    0x000032a6   0x000032a6   0x00000002   PAD
    0x000032a8   0x000032a8   0x00000058   Code   RO          594    i.prvIdleTask       FreeRTOS.lib(tasks.o)
    0x00003300   0x00003300   0x000000b2   Code   RO         3010    i.prvParseDNSReply  Network.lib(freertos_dns.o)
    0x000033b2   0x000033b2   0x00000062   Code   RO         1516    i.prvProcessEthernetPacket  Network.lib(freertos_ip.o)
    0x00003414   0x00003414   0x0000003c   Code   RO         1517    i.prvProcessICMPEchoRequest  Network.lib(freertos_ip.o)
    0x00003450   0x00003450   0x00000024   Code   RO         1518    i.prvProcessICMPPacket  Network.lib(freertos_ip.o)
    0x00003474   0x00003474   0x000000e0   Code   RO         1519    i.prvProcessIPPacket  Network.lib(freertos_ip.o)
    0x00003554   0x00003554   0x00000044   Code   RO         1520    i.prvProcessNetworkDownEvent  Network.lib(freertos_ip.o)
    0x00003598   0x00003598   0x000000ac   Code   RO          889    i.prvSampleTimeNow  FreeRTOS.lib(timers.o)
    0x00003644   0x00003644   0x00000090   Code   RO         2506    i.prvSendData       Network.lib(freertos_tcp_ip.o)
    0x000036d4   0x000036d4   0x00000060   Code   RO         2507    i.prvSetOptions     Network.lib(freertos_tcp_ip.o)
    0x00003734   0x00003734   0x0000001e   Code   RO         2508    i.prvSetSynAckOptions  Network.lib(freertos_tcp_ip.o)
    0x00003752   0x00003752   0x00000020   Code   RO         3011    i.prvSkipNameField  Network.lib(freertos_dns.o)
    0x00003772   0x00003772   0x00000002   PAD
    0x00003774   0x00003774   0x00000058   Code   RO         2509    i.prvSocketSetMSS   Network.lib(freertos_tcp_ip.o)
    0x000037cc   0x000037cc   0x000000b0   Code   RO         2510    i.prvStoreRxData    Network.lib(freertos_tcp_ip.o)
    0x0000387c   0x0000387c   0x0000005a   Code   RO         2511    i.prvTCPAddTxData   Network.lib(freertos_tcp_ip.o)
    0x000038d6   0x000038d6   0x00000002   PAD
    0x000038d8   0x000038d8   0x00000088   Code   RO         2512    i.prvTCPBufferResize  Network.lib(freertos_tcp_ip.o)
    0x00003960   0x00003960   0x00000040   Code   RO         2513    i.prvTCPCreateWindow  Network.lib(freertos_tcp_ip.o)
    0x000039a0   0x000039a0   0x000000ec   Code   RO         2514    i.prvTCPHandleFin   Network.lib(freertos_tcp_ip.o)
    0x00003a8c   0x00003a8c   0x00000194   Code   RO         2515    i.prvTCPHandleState  Network.lib(freertos_tcp_ip.o)
    0x00003c20   0x00003c20   0x0000008c   Code   RO         2516    i.prvTCPNextTimeout  Network.lib(freertos_tcp_ip.o)
    0x00003cac   0x00003cac   0x00000140   Code   RO         2517    i.prvTCPPrepareConnect  Network.lib(freertos_tcp_ip.o)
    0x00003dec   0x00003dec   0x0000019c   Code   RO         2518    i.prvTCPPrepareSend  Network.lib(freertos_tcp_ip.o)
    0x00003f88   0x00003f88   0x00000224   Code   RO         2519    i.prvTCPReturnPacket  Network.lib(freertos_tcp_ip.o)
    0x000041ac   0x000041ac   0x0000008a   Code   RO         2520    i.prvTCPSendPacket  Network.lib(freertos_tcp_ip.o)
    0x00004236   0x00004236   0x00000002   PAD
    0x00004238   0x00004238   0x0000004c   Code   RO         2521    i.prvTCPSendRepeated  Network.lib(freertos_tcp_ip.o)
    0x00004284   0x00004284   0x00000024   Code   RO         2522    i.prvTCPSendReset   Network.lib(freertos_tcp_ip.o)
    0x000042a8   0x000042a8   0x0000003c   Code   RO         1867    i.prvTCPSetSocketCount  Network.lib(freertos_sockets.o)
    0x000042e4   0x000042e4   0x00000088   Code   RO         2523    i.prvTCPSocketCopy  Network.lib(freertos_tcp_ip.o)
    0x0000436c   0x0000436c   0x0000002a   Code   RO         2524    i.prvTCPSocketIsActive  Network.lib(freertos_tcp_ip.o)
    0x00004396   0x00004396   0x00000068   Code   RO         2525    i.prvTCPStatusAgeCheck  Network.lib(freertos_tcp_ip.o)
    0x000043fe   0x000043fe   0x0000000c   Code   RO         2526    i.prvTCPTouchSocket  Network.lib(freertos_tcp_ip.o)
    0x0000440a   0x0000440a   0x00000012   Code   RO         2689    i.prvTCPWindowTxHasSpace  Network.lib(freertos_tcp_win.o)
    0x0000441c   0x0000441c   0x00000010   Code   RO          326    i.prvTaskExitError  FreeRTOS.lib(port.o)
    0x0000442c   0x0000442c   0x00000080   Code   RO         1868    i.prvTcpCreateStream  Network.lib(freertos_sockets.o)
    0x000044ac   0x000044ac   0x000002a8   Code   RO          890    i.prvTimerTask      FreeRTOS.lib(timers.o)
    0x00004754   0x00004754   0x0000006c   Code   RO          412    i.prvUnlockQueue    FreeRTOS.lib(queue.o)
    0x000047c0   0x000047c0   0x0000002e   Code   RO         1869    i.prvValidSocket    Network.lib(freertos_sockets.o)
    0x000047ee   0x000047ee   0x00000002   PAD
    0x000047f0   0x000047f0   0x0000014c   Code   RO         2238    i.pvPortMalloc      FreeRTOS.lib(heap_4.o)
    0x0000493c   0x0000493c   0x00000018   Code   RO          595    i.pvTaskIncrementMutexHeldCount  FreeRTOS.lib(tasks.o)
    0x00004954   0x00004954   0x0000007c   Code   RO         2810    i.pxGetNetworkBufferWithDescriptor  Network.lib(bufferallocation_2.o)
    0x000049d0   0x000049d0   0x00000030   Code   RO         1870    i.pxListFindListItemWithValue  Network.lib(freertos_sockets.o)
    0x00004a00   0x00004a00   0x00000024   Code   RO          327    i.pxPortInitialiseStack  FreeRTOS.lib(port.o)
    0x00004a24   0x00004a24   0x00000054   Code   RO         1871    i.pxTCPSocketLookup  Network.lib(freertos_sockets.o)
    0x00004a78   0x00004a78   0x0000001a   Code   RO         1522    i.pxUDPPayloadBuffer_to_NetworkBuffer  Network.lib(freertos_ip.o)
    0x00004a92   0x00004a92   0x00000002   PAD
    0x00004a94   0x00004a94   0x0000001c   Code   RO         1872    i.pxUDPSocketLookup  Network.lib(freertos_sockets.o)
    0x00004ab0   0x00004ab0   0x0000003e   Code   RO         3076    i.read_PHY          Network.lib(lpc17xx_emac.o)
    0x00004aee   0x00004aee   0x00000002   PAD
    0x00004af0   0x00004af0   0x0000007c   Code   RO           10    i.recebeEnviaSerial  main.o
    0x00004b6c   0x00004b6c   0x00000068   Code   RO         3077    i.rx_descr_init     Network.lib(lpc17xx_emac.o)
    0x00004bd4   0x00004bd4   0x0000002c   Code   RO         3078    i.setEmacAddr       Network.lib(lpc17xx_emac.o)
    0x00004c00   0x00004c00   0x0000016a   Code   RO         2872    i.setEthernetPins   Network.lib(networkhal.o)
    0x00004d6a   0x00004d6a   0x00000002   PAD
    0x00004d6c   0x00004d6c   0x0000005c   Code   RO         3079    i.tx_descr_init     Network.lib(lpc17xx_emac.o)
    0x00004dc8   0x00004dc8   0x00000018   Code   RO         3012    i.ulDNSHandlePacket  Network.lib(freertos_dns.o)
    0x00004de0   0x00004de0   0x00000058   Code   RO         2690    i.ulTCPWindowTxAck  Network.lib(freertos_tcp_win.o)
    0x00004e38   0x00004e38   0x00000064   Code   RO         2691    i.ulTCPWindowTxGet  Network.lib(freertos_tcp_win.o)
    0x00004e9c   0x00004e9c   0x0000006c   Code   RO          596    i.ulTaskNotifyTake  FreeRTOS.lib(tasks.o)
    0x00004f08   0x00004f08   0x0000000e   Code   RO         2692    i.ulTimerGetAge     Network.lib(freertos_tcp_win.o)
    0x00004f16   0x00004f16   0x0000015e   Code   RO         1523    i.usGenerateChecksum  Network.lib(freertos_ip.o)
    0x00005074   0x00005074   0x000000d8   Code   RO         1524    i.usGenerateProtocolChecksum  Network.lib(freertos_ip.o)
    0x0000514c   0x0000514c   0x00000026   Code   RO         2283    i.uxListRemove      FreeRTOS.lib(list.o)
    0x00005172   0x00005172   0x00000012   Code   RO          413    i.uxQueueMessagesWaiting  FreeRTOS.lib(queue.o)
    0x00005184   0x00005184   0x00000018   Code   RO          600    i.uxTaskResetEventItemValue  FreeRTOS.lib(tasks.o)
    0x0000519c   0x0000519c   0x000000bc   Code   RO         2398    i.vARPAgeCache      Network.lib(freertos_arp.o)
    0x00005258   0x00005258   0x00000048   Code   RO         2399    i.vARPGenerateRequestPacket  Network.lib(freertos_arp.o)
    0x000052a0   0x000052a0   0x00000158   Code   RO         2400    i.vARPRefreshCacheEntry  Network.lib(freertos_arp.o)
    0x000053f8   0x000053f8   0x00000014   Code   RO         2129    i.vApplicationGetIdleTaskMemory  FreeRTOS.lib(freertosappstaticalloc.o)
    0x0000540c   0x0000540c   0x00000014   Code   RO         2130    i.vApplicationGetTimerTaskMemory  FreeRTOS.lib(freertosappstaticalloc.o)
    0x00005420   0x00005420   0x00000002   Code   RO           11    i.vApplicationIPNetworkEventHook  main.o
    0x00005422   0x00005422   0x00000002   PAD
    0x00005424   0x00005424   0x00000064   Code   RO           12    i.vApplicationStackOverflowHook  main.o
    0x00005488   0x00005488   0x00000034   Code   RO         2171    i.vEventGroupDelete  FreeRTOS.lib(event_groups.o)
    0x000054bc   0x000054bc   0x00000024   Code   RO         1525    i.vIPNetworkUpCalls  Network.lib(freertos_ip.o)
    0x000054e0   0x000054e0   0x00000016   Code   RO         2284    i.vListInitialise   FreeRTOS.lib(list.o)
    0x000054f6   0x000054f6   0x00000006   Code   RO         2285    i.vListInitialiseItem  FreeRTOS.lib(list.o)
    0x000054fc   0x000054fc   0x0000003a   Code   RO         2286    i.vListInsert       FreeRTOS.lib(list.o)
    0x00005536   0x00005536   0x00000018   Code   RO         2287    i.vListInsertEnd    FreeRTOS.lib(list.o)
    0x0000554e   0x0000554e   0x00000002   PAD
    0x00005550   0x00005550   0x00000038   Code   RO         1873    i.vNetworkSocketsInit  Network.lib(freertos_sockets.o)
    0x00005588   0x00005588   0x0000001c   Code   RO          329    i.vPortEnterCritical  FreeRTOS.lib(port.o)
    0x000055a4   0x000055a4   0x00000018   Code   RO          330    i.vPortExitCritical  FreeRTOS.lib(port.o)
    0x000055bc   0x000055bc   0x00000090   Code   RO         2239    i.vPortFree         FreeRTOS.lib(heap_4.o)
    0x0000564c   0x0000564c   0x00000024   Code   RO          331    i.vPortSetupTimerInterrupt  FreeRTOS.lib(port.o)
    0x00005670   0x00005670   0x000000dc   Code   RO         2784    i.vProcessGeneratedUDPPacket  Network.lib(freertos_udp_ip.o)
    0x0000574c   0x0000574c   0x0000000e   Code   RO          416    i.vQueueDelete      FreeRTOS.lib(queue.o)
    0x0000575a   0x0000575a   0x0000004a   Code   RO          417    i.vQueueWaitForMessageRestricted  FreeRTOS.lib(queue.o)
    0x000057a4   0x000057a4   0x00000010   Code   RO         2813    i.vReleaseNetworkBuffer  Network.lib(bufferallocation_2.o)
    0x000057b4   0x000057b4   0x0000004c   Code   RO         2814    i.vReleaseNetworkBufferAndDescriptor  Network.lib(bufferallocation_2.o)
    0x00005800   0x00005800   0x0000002c   Code   RO         1526    i.vReturnEthernetFrame  Network.lib(freertos_ip.o)
    0x0000582c   0x0000582c   0x00000088   Code   RO         1874    i.vSocketBind       Network.lib(freertos_sockets.o)
    0x000058b4   0x000058b4   0x0000006e   Code   RO         1875    i.vSocketClose      Network.lib(freertos_sockets.o)
    0x00005922   0x00005922   0x000000d8   Code   RO         2527    i.vTCPStateChange   Network.lib(freertos_tcp_ip.o)
    0x000059fa   0x000059fa   0x0000000c   Code   RO         2694    i.vTCPTimerSet      Network.lib(freertos_tcp_win.o)
    0x00005a06   0x00005a06   0x00000002   PAD
    0x00005a08   0x00005a08   0x00000034   Code   RO         2695    i.vTCPWindowCreate  Network.lib(freertos_tcp_win.o)
    0x00005a3c   0x00005a3c   0x0000005a   Code   RO         2697    i.vTCPWindowInit    Network.lib(freertos_tcp_win.o)
    0x00005a96   0x00005a96   0x00000002   PAD
    0x00005a98   0x00005a98   0x00000038   Code   RO          601    i.vTaskDelay        FreeRTOS.lib(tasks.o)
    0x00005ad0   0x00005ad0   0x00000010   Code   RO          605    i.vTaskInternalSetTimeOutState  FreeRTOS.lib(tasks.o)
    0x00005ae0   0x00005ae0   0x0000000c   Code   RO          606    i.vTaskMissedYield  FreeRTOS.lib(tasks.o)
    0x00005aec   0x00005aec   0x00000020   Code   RO          608    i.vTaskPlaceOnEventList  FreeRTOS.lib(tasks.o)
    0x00005b0c   0x00005b0c   0x00000030   Code   RO          609    i.vTaskPlaceOnEventListRestricted  FreeRTOS.lib(tasks.o)
    0x00005b3c   0x00005b3c   0x00000030   Code   RO          610    i.vTaskPlaceOnUnorderedEventList  FreeRTOS.lib(tasks.o)
    0x00005b6c   0x00005b6c   0x00000084   Code   RO          611    i.vTaskPriorityDisinheritAfterTimeout  FreeRTOS.lib(tasks.o)
    0x00005bf0   0x00005bf0   0x0000004c   Code   RO          612    i.vTaskRemoveFromUnorderedEventList  FreeRTOS.lib(tasks.o)
    0x00005c3c   0x00005c3c   0x0000002c   Code   RO           14    i.vTaskRetornoLed2  main.o
    0x00005c68   0x00005c68   0x00000020   Code   RO          614    i.vTaskSetTimeOutState  FreeRTOS.lib(tasks.o)
    0x00005c88   0x00005c88   0x00000108   Code   RO          615    i.vTaskStartScheduler  FreeRTOS.lib(tasks.o)
    0x00005d90   0x00005d90   0x00000134   Code   RO          616    i.vTaskSuspend      FreeRTOS.lib(tasks.o)
    0x00005ec4   0x00005ec4   0x00000010   Code   RO          617    i.vTaskSuspendAll   FreeRTOS.lib(tasks.o)
    0x00005ed4   0x00005ed4   0x00000078   Code   RO          618    i.vTaskSwitchContext  FreeRTOS.lib(tasks.o)
    0x00005f4c   0x00005f4c   0x0000007c   Code   RO           15    i.vUDPServer        main.o
    0x00005fc8   0x00005fc8   0x0000001a   Code   RO         1877    i.vWakeUpSocketUser  Network.lib(freertos_sockets.o)
    0x00005fe2   0x00005fe2   0x00000036   Code   RO         3080    i.write_PHY         Network.lib(lpc17xx_emac.o)
    0x00006018   0x00006018   0x0000001c   Code   RO         2174    i.xEventGroupCreate  FreeRTOS.lib(event_groups.o)
    0x00006034   0x00006034   0x0000006c   Code   RO         2177    i.xEventGroupSetBits  FreeRTOS.lib(event_groups.o)
    0x000060a0   0x000060a0   0x000000bc   Code   RO         2179    i.xEventGroupWaitBits  FreeRTOS.lib(event_groups.o)
    0x0000615c   0x0000615c   0x0000000c   Code   RO         1527    i.xIPIsNetworkTaskReady  Network.lib(freertos_ip.o)
    0x00006168   0x00006168   0x0000001c   Code   RO         1528    i.xIsCallingFromIPTask  Network.lib(freertos_ip.o)
    0x00006184   0x00006184   0x00000090   Code   RO         2815    i.xNetworkBuffersInitialise  Network.lib(bufferallocation_2.o)
    0x00006214   0x00006214   0x00000014   Code   RO         2873    i.xNetworkInterfaceInitialise  Network.lib(networkhal.o)
    0x00006228   0x00006228   0x0000001a   Code   RO         2874    i.xNetworkInterfaceOutput  Network.lib(networkhal.o)
    0x00006242   0x00006242   0x00000002   PAD
    0x00006244   0x00006244   0x00000030   Code   RO          332    i.xPortStartScheduler  FreeRTOS.lib(port.o)
    0x00006274   0x00006274   0x0000002c   Code   RO          333    i.xPortSysTickHandler  FreeRTOS.lib(port.o)
    0x000062a0   0x000062a0   0x00000166   Code   RO         2528    i.xProcessReceivedTCPPacket  Network.lib(freertos_tcp_ip.o)
    0x00006406   0x00006406   0x0000007e   Code   RO         2785    i.xProcessReceivedUDPPacket  Network.lib(freertos_udp_ip.o)
    0x00006484   0x00006484   0x00000014   Code   RO          418    i.xQueueCreateCountingSemaphore  FreeRTOS.lib(queue.o)
    0x00006498   0x00006498   0x00000024   Code   RO          420    i.xQueueCreateMutex  FreeRTOS.lib(queue.o)
    0x000064bc   0x000064bc   0x00000070   Code   RO          422    i.xQueueGenericCreate  FreeRTOS.lib(queue.o)
    0x0000652c   0x0000652c   0x00000062   Code   RO          423    i.xQueueGenericCreateStatic  FreeRTOS.lib(queue.o)
    0x0000658e   0x0000658e   0x00000002   PAD
    0x00006590   0x00006590   0x00000170   Code   RO          425    i.xQueueGenericSend  FreeRTOS.lib(queue.o)
    0x00006700   0x00006700   0x000000c8   Code   RO          426    i.xQueueGenericSendFromISR  FreeRTOS.lib(queue.o)
    0x000067c8   0x000067c8   0x00000054   Code   RO          427    i.xQueueGiveFromISR  FreeRTOS.lib(queue.o)
    0x0000681c   0x0000681c   0x00000114   Code   RO          433    i.xQueueReceive     FreeRTOS.lib(queue.o)
    0x00006930   0x00006930   0x00000148   Code   RO          435    i.xQueueSemaphoreTake  FreeRTOS.lib(queue.o)
    0x00006a78   0x00006a78   0x00000090   Code   RO         1529    i.xSendEventStructToIPTask  Network.lib(freertos_ip.o)
    0x00006b08   0x00006b08   0x00000018   Code   RO         1530    i.xSendEventToIPTask  Network.lib(freertos_ip.o)
    0x00006b20   0x00006b20   0x00000050   Code   RO         2529    i.xTCPCheckNewClient  Network.lib(freertos_tcp_ip.o)
    0x00006b70   0x00006b70   0x00000044   Code   RO         2530    i.xTCPSocketCheck   Network.lib(freertos_tcp_ip.o)
    0x00006bb4   0x00006bb4   0x000000a0   Code   RO         1878    i.xTCPTimerCheck    Network.lib(freertos_sockets.o)
    0x00006c54   0x00006c54   0x00000010   Code   RO         2698    i.xTCPWindowRxEmpty  Network.lib(freertos_tcp_win.o)
    0x00006c64   0x00006c64   0x0000000e   Code   RO         2699    i.xTCPWindowTxDone  Network.lib(freertos_tcp_win.o)
    0x00006c72   0x00006c72   0x00000060   Code   RO         2700    i.xTCPWindowTxHasData  Network.lib(freertos_tcp_win.o)
    0x00006cd2   0x00006cd2   0x00000002   PAD
    0x00006cd4   0x00006cd4   0x0000005c   Code   RO          620    i.xTaskCheckForTimeOut  FreeRTOS.lib(tasks.o)
    0x00006d30   0x00006d30   0x000000c2   Code   RO          621    i.xTaskCreate       FreeRTOS.lib(tasks.o)
    0x00006df2   0x00006df2   0x000000ba   Code   RO          622    i.xTaskCreateStatic  FreeRTOS.lib(tasks.o)
    0x00006eac   0x00006eac   0x000000a4   Code   RO          623    i.xTaskGenericNotify  FreeRTOS.lib(tasks.o)
    0x00006f50   0x00006f50   0x0000000c   Code   RO          625    i.xTaskGetCurrentTaskHandle  FreeRTOS.lib(tasks.o)
    0x00006f5c   0x00006f5c   0x0000001c   Code   RO          626    i.xTaskGetSchedulerState  FreeRTOS.lib(tasks.o)
    0x00006f78   0x00006f78   0x0000000c   Code   RO          627    i.xTaskGetTickCount  FreeRTOS.lib(tasks.o)
    0x00006f84   0x00006f84   0x000000d4   Code   RO          629    i.xTaskIncrementTick  FreeRTOS.lib(tasks.o)
    0x00007058   0x00007058   0x0000007c   Code   RO          632    i.xTaskPriorityDisinherit  FreeRTOS.lib(tasks.o)
    0x000070d4   0x000070d4   0x00000090   Code   RO          633    i.xTaskPriorityInherit  FreeRTOS.lib(tasks.o)
    0x00007164   0x00007164   0x00000064   Code   RO          634    i.xTaskRemoveFromEventList  FreeRTOS.lib(tasks.o)
    0x000071c8   0x000071c8   0x00000190   Code   RO          635    i.xTaskResumeAll    FreeRTOS.lib(tasks.o)
    0x00007358   0x00007358   0x0000008c   Code   RO          895    i.xTimerCreate      FreeRTOS.lib(timers.o)
    0x000073e4   0x000073e4   0x00000090   Code   RO          897    i.xTimerCreateTimerTask  FreeRTOS.lib(timers.o)
    0x00007474   0x00007474   0x00000064   Code   RO          898    i.xTimerGenericCommand  FreeRTOS.lib(timers.o)
    0x000074d8   0x000074d8   0x00000004   Data   RO           17    .constdata          main.o
    0x000074dc   0x000074dc   0x00000018   Data   RO         1532    .constdata          Network.lib(freertos_ip.o)
    0x000074f4   0x000074f4   0x00000008   Data   RO         1880    .constdata          Network.lib(freertos_sockets.o)
    0x000074fc   0x000074fc   0x00000026   Data   RO         2403    .constdata          Network.lib(freertos_arp.o)
    0x00007522   0x00007522   0x00000002   PAD
    0x00007524   0x00007524   0x00000004   Data   RO         2817    .constdata          Network.lib(bufferallocation_2.o)
    0x00007528   0x00007528   0x0000000a   Data   RO         3082    .constdata          Network.lib(lpc17xx_emac.o)
    0x00007532   0x00007532   0x00000002   PAD
    0x00007534   0x00007534   0x00000030   Data   RO         3458    Region$$Table       anon$$obj.o


    Execution Region RW_IRAM1 (Exec base: 0x10000000, Load base: 0x00007564, Size: 0x00008000, Max: 0x00008000, ABSOLUTE)

    Exec Addr    Load Addr    Size         Type   Attr      Idx    E Section Name        Object

    0x10000000        -       0x00008000   Zero   RW         2244    .bss                FreeRTOS.lib(heap_4.o)


    Execution Region RW_IRAM2 (Exec base: 0x2007c000, Load base: 0x00007564, Size: 0x00002a78, Max: 0x00008000, ABSOLUTE)

    Exec Addr    Load Addr    Size         Type   Attr      Idx    E Section Name        Object

    0x2007c000   0x00007564   0x00000034   Data   RW           18    .data               main.o
    0x2007c034   0x00007598   0x00000004   Data   RW          286    .data               system_lpc17xx.o
    0x2007c038   0x0000759c   0x00000004   Data   RW          334    .data               FreeRTOS.lib(port.o)
    0x2007c03c   0x000075a0   0x0000003c   Data   RW          638    .data               FreeRTOS.lib(tasks.o)
    0x2007c078   0x000075dc   0x00000014   Data   RW          904    .data               FreeRTOS.lib(timers.o)
    0x2007c08c   0x000075f0   0x00000028   Data   RW         1533    .data               Network.lib(freertos_ip.o)
    0x2007c0b4   0x00007618   0x00000008   Data   RW         1881    .data               Network.lib(freertos_sockets.o)
    0x2007c0bc   0x00007620   0x00000020   Data   RW         2245    .data               FreeRTOS.lib(heap_4.o)
    0x2007c0dc   0x00007640   0x00000004   Data   RW         2404    .data               Network.lib(freertos_arp.o)
    0x2007c0e0   0x00007644   0x00000004   Data   RW         2531    .data               Network.lib(freertos_tcp_ip.o)
    0x2007c0e4   0x00007648   0x00000004   Data   RW         2701    .data               Network.lib(freertos_tcp_win.o)
    0x2007c0e8   0x0000764c   0x00000018   Data   RW         2786    .data               Network.lib(freertos_udp_ip.o)
    0x2007c100   0x00007664   0x00000008   Data   RW         2818    .data               Network.lib(bufferallocation_2.o)
    0x2007c108   0x0000766c   0x00000004   Data   RW         2875    .data               Network.lib(networkhal.o)
    0x2007c10c        -       0x00000800   Zero   RW           16    .bss                main.o
    0x2007c90c        -       0x000000c8   Zero   RW          637    .bss                FreeRTOS.lib(tasks.o)
    0x2007c9d4        -       0x00000190   Zero   RW          903    .bss                FreeRTOS.lib(timers.o)
    0x2007cb64        -       0x00000050   Zero   RW         1531    .bss                Network.lib(freertos_ip.o)
    0x2007cbb4        -       0x00000028   Zero   RW         1879    .bss                Network.lib(freertos_sockets.o)
    0x2007cbdc        -       0x000005c0   Zero   RW         2131    .bss                FreeRTOS.lib(freertosappstaticalloc.o)
    0x2007d19c        -       0x00000048   Zero   RW         2402    .bss                Network.lib(freertos_arp.o)
    0x2007d1e4        -       0x000000c8   Zero   RW         2816    .bss                Network.lib(bufferallocation_2.o)
    0x2007d2ac   0x00007670   0x00000004   PAD
    0x2007d2b0        -       0x00001564   Zero   RW         3081    .bss                Network.lib(lpc17xx_emac.o)
    0x2007e814        -       0x00000060   Zero   RW         3332    .bss                c_w.l(libspace.o)
    0x2007e874   0x00007670   0x00000004   PAD
    0x2007e878        -       0x00000000   Zero   RW          319    HEAP                startup_mps_cm3.o
    0x2007e878        -       0x00000200   Zero   RW          318    STACK               startup_mps_cm3.o


==============================================================================

Image component sizes


      Code (inc. data)   RO Data    RW Data    ZI Data      Debug   Object Name

      1402        324          4         52       2048      88389   main.o
        52         18        204          0        512        804   startup_mps_cm3.o
       636         38          0          4          0       1319   system_lpc17xx.o

    ----------------------------------------------------------------------
      2092        380        256         56       2560      90512   Object Totals
         0          0         48          0          0          0   (incl. Generated)
         2          0          0          0          0          0   (incl. Padding)

    ----------------------------------------------------------------------

      Code (inc. data)   RO Data    RW Data    ZI Data      Debug   Library Member Name

       516        190          0          0          0       4795   lpc17xx_adc.o
       112         18          0          0          0       1677   lpc17xx_clkpwr.o
       252        110          0          0          0       4591   lpc17xx_gpio.o
         2          0          0          0          0        799   lpc17xx_libcfg_default.o
       140         12          0          0          0       3519   lpc17xx_pinsel.o
      1212        104          0          0          0      14613   lpc17xx_uart.o
       376          6          0          0          0       5388   event_groups.o
        40          8          0          0       1472      15197   freertosappstaticalloc.o
       476         24          0         32      32768       3119   heap_4.o
       148          0          0          0          0       2798   list.o
       382         46          0          4          0      10068   port.o
      1736         14          0          0          0      36587   queue.o
      3416        266          0         60        200      43302   tasks.o
      1236         68          0         20        400      31006   timers.o
       360         40          4          8        200       3908   bufferallocation_2.o
      1010         66         38          4         72      13521   freertos_arp.o
       234          0          0          0          0      11082   freertos_dns.o
      2536        194         24         40         80      52777   freertos_ip.o
      2580         98          8          8         40      28823   freertos_sockets.o
       410          0          0          0          0       7398   freertos_stream_buffer.o
      5484         84          0          4          0      37065   freertos_tcp_ip.o
       658         18          0          4          0      10526   freertos_tcp_win.o
       346          6          0         24          0      10369   freertos_udp_ip.o
      1256        132         10          0       5476      10519   lpc17xx_emac.o
       826         52          0          4          0      47568   networkhal.o
         8          0          0          0          0         68   __main.o
       104          0          0          0          0         84   __printf.o
         0          0          0          0          0          0   __rtentry.o
        12          0          0          0          0          0   __rtentry2.o
         6          0          0          0          0          0   __rtentry4.o
        52          8          0          0          0          0   __scatter.o
        26          0          0          0          0          0   __scatter_copy.o
        28          0          0          0          0          0   __scatter_zi.o
        48          6          0          0          0         96   _printf_char_common.o
       120         16          0          0          0         92   _printf_dec.o
       178          0          0          0          0         88   _printf_intcommon.o
         0          0          0          0          0          0   _printf_percent.o
         4          0          0          0          0          0   _printf_percent_end.o
         6          0          0          0          0          0   _printf_u.o
        10          0          0          0          0         68   _sputc.o
        16          0          0          0          0         68   aeabi_memset.o
        18          0          0          0          0         80   exit.o
         6          0          0          0          0        152   heapauxi.o
         0          0          0          0          0          0   indicate_semi.o
         2          0          0          0          0          0   libinit.o
         2          0          0          0          0          0   libinit2.o
         2          0          0          0          0          0   libshutdown.o
         2          0          0          0          0          0   libshutdown2.o
         8          4          0          0         96         68   libspace.o
       238          0          0          0          0        100   lludivv7m.o
        88          0          0          0          0         76   memcmp.o
        40          6          0          0          0         84   noretval__2sprintf.o
        68          0          0          0          0         68   rt_memclr.o
        78          0          0          0          0         80   rt_memclr_w.o
       138          0          0          0          0         68   rt_memcpy_v6.o
       100          0          0          0          0         80   rt_memcpy_w.o
       132          0          0          0          0         68   rt_memmove_v6.o
       122          0          0          0          0         80   rt_memmove_w.o
         2          0          0          0          0          0   rtexit.o
        10          0          0          0          0          0   rtexit2.o
        62          0          0          0          0         76   strlen.o
        12          4          0          0          0         68   sys_exit.o
        74          0          0          0          0         80   sys_stackheap_outer.o
         2          0          0          0          0         68   use_no_semi.o

    ----------------------------------------------------------------------
     27616       1600         88        212      40812     412875   Library Totals
        48          0          4          0          8          0   (incl. Padding)

    ----------------------------------------------------------------------

      Code (inc. data)   RO Data    RW Data    ZI Data      Debug   Library Name

      2234        434          0          0          0      29994   CMSIS.lib
      7810        432          0        116      34840     147465   FreeRTOS.lib
     15700        690         84         96       5868     233556   Network.lib
      1824         44          0          0         96       1860   c_w.l

    ----------------------------------------------------------------------
     27616       1600         88        212      40812     412875   Library Totals

    ----------------------------------------------------------------------

==============================================================================


      Code (inc. data)   RO Data    RW Data    ZI Data      Debug   

     29708       1980        344        268      43372     490435   Grand Totals
     29708       1980        344        268      43372     490435   ELF Image Totals
     29708       1980        344        268          0          0   ROM Totals

==============================================================================

    Total RO  Size (Code + RO Data)                30052 (  29.35kB)
    Total RW  Size (RW Data + ZI Data)             43640 (  42.62kB)
    Total ROM Size (Code + RO Data + RW Data)      30320 (  29.61kB)

==============================================================================

